MPASM 5.77                        WS2813.ASM   8-13-2018  13:36:12         PAGE  1


LOC  OBJECT CODE     LINE SOURCE TEXT
  VALUE

                      00001 ;*******************************************************************************
                      00002 ;
                      00003 ; Program: WS2813
                      00004 ; Author: Paul Wood
                      00005 ; Date Created: 06/30/2018 5:40PM
                      00006 ; Purpose: To display patterns on WS2813 based RGB LED strip
                      00007 ;
                      00008 ;*******************************************************************************
                      00009 ;
                      00010 ; Program Hierarchy:
                      00011 ;
                      00012 ;
                      00013 ;*******************************************************************************
                      00014 ;                              CONFIGURATION BITS
                      00015 ;*******************************************************************************
                      00016  list   R=DEC
                      00017 #include p16f1615.inc
                      00001         LIST
                      00002 
                      00003 ;==========================================================================
                      00004 ; Build date : Nov 22 2017
                      00005 ;  MPASM PIC16F1615 processor include
                      00006 ; 
                      00007 ;  (c) Copyright 1999-2017 Microchip Technology, All rights reserved
                      00008 ;==========================================================================
                      00009 
                      05119         LIST
                      00018 
                      00019 ; CONFIG1
                      00020 ; __config 0xFFFC
8007   3FFC           00021  __CONFIG _CONFIG1, _FOSC_INTOSC & _PWRTE_OFF & _MCLRE_ON & _CP_OFF & _BOREN_ON & _CLKOUTEN_OFF & _IESO_
                            ON & _FCMEN_ON
                      00022 ; CONFIG2
                      00023 ; __config 0xFFFF
8008   3FFF           00024  __CONFIG _CONFIG2, _WRT_OFF & _PPS1WAY_ON & _ZCD_OFF & _PLLEN_ON & _STVREN_ON & _BORV_LO & _LPBOR_OFF &
                             _LVP_ON
                      00025 ; CONFIG3
                      00026 ; __config 0xFF9F
8009   3F9F           00027  __CONFIG _CONFIG3, _WDTCPS_WDTCPS1F & _WDTE_OFF & _WDTCWS_WDTCWSSW & _WDTCCS_SWC
                      00028 
                      00029  
                      00030 
                      00031 ;*******************************************************************************
                      00032 ;                           VARIABLE DEFINITIONS
                      00033 ;*******************************************************************************
                      00034 #DEFINE WS2813_PIN      LATC4       ; MUST use PORTC
                      00035 #DEFINE NUM_LEDS        60          ; number of LEDs in strip
                      00036 #DEFINE ADC_ANSEL       ANSA2
                      00037 #DEFINE RED_SPECTRUM_CH         1
                      00038 #DEFINE GREEN_SPECTRUM_CH       3
                      00039 #DEFINE BLUE_SPECTRUM_CH        5
                      00040 #DEFINE MSGEQ7_READ_PIN         TRISA2
                      00041 #DEFINE MSGEQ7_ANSEL_PIN        ANSA2
MPASM 5.77                        WS2813.ASM   8-13-2018  13:36:12         PAGE  2


LOC  OBJECT CODE     LINE SOURCE TEXT
  VALUE

                      00042 #DEFINE MSGEQ7_WPU_PIN          WPUA2
                      00043 #DEFINE MSGEQ7_STROBE_PIN       LATC3
                      00044 #DEFINE MSGEQ7_RESET_PIN        LATC5
                      00045 
                      00046 VARS    UDATA   0x120
0120                  00047 BCOUNT          RES 1           ; Bit count- for use for when 
                      00048                                 ; displaying a color in ws2813_write
0121                  00049 SHIFTNUM        RES 2
0123                  00050 FRAMECOUNT      RES 1
0124                  00051 WRITE_COUNT     RES 1           ; reserve 1byte for write counter
0125                  00052 WS2813_RESET    RES 2           ; to save operations, this works as two, nested   
0127                  00053 WS2813_RESET_COPY   RES 2       ; for loops. First byte is for outer loop, 
                      00054                                 ; second byte is for inner loop; = 256^2
0129                  00055 WCOLOR  RES 3                   ; reserve 24bits for RGB color (IN G,R,B FORMAT)        
012C                  00056 WDATA   RES 2
                      00057    
                      00058         
Message[313]: CBLOCK constants will start with a value of 0.
                      00059         cblock
  00000000            00060         d0
                      00061         endc
                      00062         
                      00063 ;*******************************************************************************
                      00064 ;                                VECTORS
                      00065 ;******************************************************************************* 
                      00066         
                      00067 RES_VECT  CODE    0x0000            ; processor reset vector
0000   3180           00068     PAGESEL START
0001   2???           00069     GOTO    START                   ; go to beginning of program     
                      00070 
                      00071 ;*******************************************************************************
                      00072 ;                             MACRO DEFINITIONS
                      00073 ;*******************************************************************************
                      00074 MOVLF   MACRO   DEST, LIT
                      00075         BANKSEL DEST
                      00076         MOVLW   LIT
                      00077         MOVWF   DEST
                      00078         ENDM
                      00079         
                      00080 MOVLF16 MACRO   DEST,LIT
                      00081         BANKSEL LIT
                      00082         MOVLW   LIT & B'0000000011111111'
                      00083         BANKSEL DEST
                      00084         MOVWF   DEST
                      00085         BANKSEL LIT
                      00086         MOVLW   LIT >> 8
                      00087         BANKSEL DEST
                      00088         MOVWF   DEST+1
                      00089         ENDM
                      00090         
                      00091 BCZ     MACRO    
                      00092         BCF     STATUS, Z
                      00093         ENDM
MPASM 5.77                        WS2813.ASM   8-13-2018  13:36:12         PAGE  3


LOC  OBJECT CODE     LINE SOURCE TEXT
  VALUE

                      00094         
                      00095 CPYFF   MACRO   FROM,TO
                      00096         MOVF    FROM, W
                      00097         MOVWF   TO
                      00098         ENDM
                      00099         
                      00100 BITHIGH MACRO   
                      00101         BSF     LATC, WS2813_PIN
                      00102         NOP
                      00103         NOP
                      00104         NOP
                      00105         NOP
                      00106         NOP
                      00107         NOP
                      00108         NOP
                      00109         BCF     LATC, WS2813_PIN
                      00110         ENDM
                      00111         
                      00112 BITLOW  MACRO
                      00113         BSF     LATC, WS2813_PIN
                      00114         NOP
                      00115         NOP
                      00116         BCF     LATC, WS2813_PIN
                      00117         NOP
                      00118         NOP
                      00119         NOP
                      00120         NOP
                      00121         NOP
                      00122         ENDM
                      00123         
                      00124 READ_ADC    MACRO
                      00125         BANKSEL ADCON0
                      00126         BSF     ADCON0, ADGO
                      00127         BTFSC   ADCON0, ADGO
                      00128          GOTO   $-1
                      00129         BANKSEL ADRESH
                      00130         MOVF    ADRESH, W
                      00131         BANKSEL WDATA
                      00132         MOVWF   WDATA+1
                      00133         BANKSEL ADRESL
                      00134         MOVF    ADRESL
                      00135         BANKSEL WDATA
                      00136         MOVWF   WDATA
                      00137         ENDM
                      00138         
                      00139         
                      00140 MSGEQ7_RESET    MACRO
                      00141         BANKSEL LATC
                      00142         BSF     LATC, MSGEQ7_RESET_PIN
                      00143         BCF     LATC, MSGEQ7_RESET_PIN
                      00144         ENDM
                      00145         
                      00146 TMR1_OFFSET MACRO   LIT
MPASM 5.77                        WS2813.ASM   8-13-2018  13:36:12         PAGE  4


LOC  OBJECT CODE     LINE SOURCE TEXT
  VALUE

                      00147         BANKSEL TMR1H
                      00148         MOVLF   TMR1H, high LIT
                      00149         MOVLF   TMR1L, low LIT
                      00150         ENDM
                      00151         
                      00152 MSGEQ7_STROBE_LOW MACRO
                      00153         BANKSEL LATC
                      00154         BCF     LATC, MSGEQ7_STROBE_PIN
                      00155         
                      00156         TMR1_DELAY 65104
                      00157         ENDM
                      00158         
                      00159 MSGEQ7_STROBE_HIGH  MACRO
                      00160         BANKSEL LATC
                      00161         BSF     LATC, MSGEQ7_STROBE_PIN
                      00162         
                      00163         TMR1_DELAY 655408
                      00164         
                      00165         BANKSEL LATC
                      00166         ENDM
                      00167 
                      00168 MSGEQ7_STROBE   MACRO
                      00169         MSGEQ7_STROBE_HIGH
                      00170         MSGEQ7_STROBE_LOW
                      00171         ENDM
                      00172         
                      00173         
                      00174 READ_SETTLE MACRO
                      00175         TMR1_DELAY 65232
                      00176         ENDM
                      00177         
                      00178 TMR1_DELAY  MACRO   LIT
                      00179         TMR1_OFFSET LIT
                      00180         BANKSEL T1CON
                      00181         BSF     T1CON, TMR1ON
                      00182         BANKSEL PIR1
                      00183         BTFSS   PIR1, TMR1IF
                      00184          GOTO $-1
                      00185         BANKSEL T1CON
                      00186         BCF     T1CON, TMR1ON
                      00187         BANKSEL PIR1
                      00188         BCF     PIR1, TMR1IF
                      00189         ENDM
                      00190         
                      00191         
                      00192 ACQ_DELAY   MACRO
                      00193    LOCAL    ACQ
                      00194    MOVLW    0x0E
                      00195 ACQ
                      00196     DECFSZ  WREG, W
                      00197     GOTO    ACQ
                      00198    ENDM
                      00199    
MPASM 5.77                        WS2813.ASM   8-13-2018  13:36:12         PAGE  5


LOC  OBJECT CODE     LINE SOURCE TEXT
  VALUE

                      00200 MOV16   MACRO   SRC, DST
                      00201         BANKSEL SRC
                      00202         MOVF    SRC,W
                      00203         BANKSEL DST
                      00204         MOVWF   DST
                      00205         BANKSEL SRC
                      00206         MOVF    SRC+1,W
                      00207         BANKSEL DST
                      00208         MOVWF   DST+1
                      00209         ENDM
                      00210 ;*******************************************************************************
                      00211 ;                         INTERRUPT SERVICE ROUTINE
                      00212 ;*******************************************************************************
                      00213      
                      00214 ; TODO
                      00215         
                      00216 ;*******************************************************************************
                      00217 ;                              INITIALIZATION
                      00218 ;*******************************************************************************
                      00219 MAIN_PROG CODE                      ; let linker place main program
                      00220  
0000                  00221 INITIAL:
                      00222     ;PORT CONFIG
0000   0022           00223     BANKSEL LATA
Message[302]: Register in operand not in bank 0.  Ensure that bank bits are correct.
0001   150C           00224     BSF     LATA, MSGEQ7_READ_PIN
0002   0023           00225     BANKSEL ANSELA
Message[302]: Register in operand not in bank 0.  Ensure that bank bits are correct.
0003   150C           00226     BSF     ANSELA, MSGEQ7_ANSEL_PIN
0004   0024           00227     BANKSEL WPUA
Message[302]: Register in operand not in bank 0.  Ensure that bank bits are correct.
0005   150C           00228     BSF     WPUA, MSGEQ7_WPU_PIN
                      00229     
0006   0021           00230     BANKSEL TRISC
Message[302]: Register in operand not in bank 0.  Ensure that bank bits are correct.
0007   120E           00231     BCF     TRISC, WS2813_PIN       ; set WS2813_PIN as the output pin for serial data
Message[302]: Register in operand not in bank 0.  Ensure that bank bits are correct.
0008   118E           00232     BCF     TRISC, MSGEQ7_STROBE_PIN
Message[302]: Register in operand not in bank 0.  Ensure that bank bits are correct.
0009   128E           00233     BCF     TRISC, MSGEQ7_RESET_PIN
                      00234     MOVLF   SLRCONC, 0X00           ; allow for maximum slew rate
000A   0026               M         BANKSEL SLRCONC
000B   3000               M         MOVLW   0X00
Message[302]: Register in operand not in bank 0.  Ensure that bank bits are correct.
000C   008E               M         MOVWF   SLRCONC
Message[302]: Register in operand not in bank 0.  Ensure that bank bits are correct.
000D   160E           00235     BSF     HIDRVC, HIDC4           ; enable high current drive for C4
                      00236     
                      00237     
                      00238     
000E   0021           00239     BANKSEL OSCCON
                      00240     MOVLF   OSCCON, B'01110000'     ; set HS internal clock to 8MHz
000F   0021               M         BANKSEL OSCCON
MPASM 5.77                        WS2813.ASM   8-13-2018  13:36:12         PAGE  6


LOC  OBJECT CODE     LINE SOURCE TEXT
  VALUE

0010   3070               M         MOVLW   B'01110000'
Message[302]: Register in operand not in bank 0.  Ensure that bank bits are correct.
0011   0099               M         MOVWF   OSCCON
                      00241     ;CALL    DELAY
Message[302]: Register in operand not in bank 0.  Ensure that bank bits are correct.
0012   1799           00242     BSF     OSCCON, SPLLEN          ; Kick in 4X PLL
                      00243     
                      00244     
0013   002?           00245     BANKSEL WCOLOR                  ; initalize COLOR variable to solid green
                      00246     MOVLF   WCOLOR, 0x00            ; green = 255
0014   002?               M         BANKSEL WCOLOR
0015   3000               M         MOVLW   0x00
0016   00??               M         MOVWF   WCOLOR
                      00247     MOVLF   WCOLOR+1, 0x00          ; red = 0
0017   002?               M         BANKSEL WCOLOR+1
0018   3000               M         MOVLW   0x00
0019   00??               M         MOVWF   WCOLOR+1
                      00248     MOVLF   WCOLOR+2, 0x00          ; blue = 0
001A   002?               M         BANKSEL WCOLOR+2
001B   3000               M         MOVLW   0x00
001C   00??               M         MOVWF   WCOLOR+2
                      00249     
                      00250     MOVLF   WS2813_RESET, 30        ; Nol * Nil = (Ntot - 7) / 20
001D   002?               M         BANKSEL WS2813_RESET
001E   301E               M         MOVLW   30
001F   00??               M         MOVWF   WS2813_RESET
                      00251     MOVLF   WS2813_RESET+1, 50      ; Ntot = (Tdelay * Fosc)
0020   002?               M         BANKSEL WS2813_RESET+1
0021   3032               M         MOVLW   50
0022   00??               M         MOVWF   WS2813_RESET+1
                      00252     
                      00253     MOVLF   FRAMECOUNT, 30
0023   002?               M         BANKSEL FRAMECOUNT
0024   301E               M         MOVLW   30
0025   00??               M         MOVWF   FRAMECOUNT
                      00254   
                      00255     
                      00256 ;ADC CONFIG
0026   0021           00257     BANKSEL ADCON1
                      00258     MOVLF   ADCON1, b'11000000'         ; right justified, Fosc/2, VDD ref
0027   0021               M         BANKSEL ADCON1
0028   30C0               M         MOVLW   b'11000000'
Message[302]: Register in operand not in bank 0.  Ensure that bank bits are correct.
0029   009E               M         MOVWF   ADCON1
                      00259     MOVLF   ADCON0, b'00001001'         ; enable and set output channel to AN2
002A   0021               M         BANKSEL ADCON0
002B   3009               M         MOVLW   b'00001001'
Message[302]: Register in operand not in bank 0.  Ensure that bank bits are correct.
002C   009D               M         MOVWF   ADCON0
                      00260     
                      00261 ;TMR1
002D   0020           00262     BANKSEL T1CON
                      00263     MOVLF   T1CON, 0x00
MPASM 5.77                        WS2813.ASM   8-13-2018  13:36:12         PAGE  7


LOC  OBJECT CODE     LINE SOURCE TEXT
  VALUE

002E   0020               M         BANKSEL T1CON
002F   3000               M         MOVLW   0x00
0030   0098               M         MOVWF   T1CON
0031   0021           00264     BANKSEL PIE1
Message[302]: Register in operand not in bank 0.  Ensure that bank bits are correct.
0032   1410           00265     BSF     PIE1, TMR1IE
                      00266     
                      00267     
                      00268     
                      00269     
                      00270     
0033   0008           00271     RETURN    
                      00272         
                      00273 ;*******************************************************************************
                      00274 ;                                   MAIN
                      00275 ;*******************************************************************************
0034                  00276 START:      
0034   2???           00277     CALL    INITIAL             
                      00278 
0035                  00279 RENDER_LOOP:
                      00280     MSGEQ7_RESET
0035   0022               M         BANKSEL LATC
Message[302]: Register in operand not in bank 0.  Ensure that bank bits are correct.
0036   168E               M         BSF     LATC, MSGEQ7_RESET_PIN
Message[302]: Register in operand not in bank 0.  Ensure that bank bits are correct.
0037   128E               M         BCF     LATC, MSGEQ7_RESET_PIN
                      00281     
                      00282     
                      00283     
Message[302]: Register in operand not in bank 0.  Ensure that bank bits are correct.
0038   158E           00284     BsF LATC, MSGEQ7_STROBE_PIN
                      00285     TMR1_DELAY  0
                          M         TMR1_OFFSET 0
0039   0020               M         BANKSEL TMR1H
                          M         MOVLF   TMR1H, high 0
003A   0020               M         BANKSEL TMR1H
003B   3000               M         MOVLW   high 0
003C   0097               M         MOVWF   TMR1H
                          M         MOVLF   TMR1L, low 0
003D   0020               M         BANKSEL TMR1L
003E   3000               M         MOVLW   low 0
003F   0096               M         MOVWF   TMR1L
0040   0020               M         BANKSEL T1CON
0041   1418               M         BSF     T1CON, TMR1ON
0042   0020               M         BANKSEL PIR1
0043   1C10               M         BTFSS   PIR1, TMR1IF
0044   2???               M          GOTO $-1
0045   0020               M         BANKSEL T1CON
0046   1018               M         BCF     T1CON, TMR1ON
0047   0020               M         BANKSEL PIR1
0048   1010               M         BCF     PIR1, TMR1IF
                      00286     TMR1_DELAY  0
                          M         TMR1_OFFSET 0
MPASM 5.77                        WS2813.ASM   8-13-2018  13:36:12         PAGE  8


LOC  OBJECT CODE     LINE SOURCE TEXT
  VALUE

0049   0020               M         BANKSEL TMR1H
                          M         MOVLF   TMR1H, high 0
004A   0020               M         BANKSEL TMR1H
004B   3000               M         MOVLW   high 0
004C   0097               M         MOVWF   TMR1H
                          M         MOVLF   TMR1L, low 0
004D   0020               M         BANKSEL TMR1L
004E   3000               M         MOVLW   low 0
004F   0096               M         MOVWF   TMR1L
0050   0020               M         BANKSEL T1CON
0051   1418               M         BSF     T1CON, TMR1ON
0052   0020               M         BANKSEL PIR1
0053   1C10               M         BTFSS   PIR1, TMR1IF
0054   2???               M          GOTO $-1
0055   0020               M         BANKSEL T1CON
0056   1018               M         BCF     T1CON, TMR1ON
0057   0020               M         BANKSEL PIR1
0058   1010               M         BCF     PIR1, TMR1IF
                      00287     TMR1_DELAY  0
                          M         TMR1_OFFSET 0
0059   0020               M         BANKSEL TMR1H
                          M         MOVLF   TMR1H, high 0
005A   0020               M         BANKSEL TMR1H
005B   3000               M         MOVLW   high 0
005C   0097               M         MOVWF   TMR1H
                          M         MOVLF   TMR1L, low 0
005D   0020               M         BANKSEL TMR1L
005E   3000               M         MOVLW   low 0
005F   0096               M         MOVWF   TMR1L
0060   0020               M         BANKSEL T1CON
0061   1418               M         BSF     T1CON, TMR1ON
0062   0020               M         BANKSEL PIR1
0063   1C10               M         BTFSS   PIR1, TMR1IF
0064   2???               M          GOTO $-1
0065   0020               M         BANKSEL T1CON
0066   1018               M         BCF     T1CON, TMR1ON
0067   0020               M         BANKSEL PIR1
0068   1010               M         BCF     PIR1, TMR1IF
                      00288     TMR1_DELAY  0
                          M         TMR1_OFFSET 0
0069   0020               M         BANKSEL TMR1H
                          M         MOVLF   TMR1H, high 0
006A   0020               M         BANKSEL TMR1H
006B   3000               M         MOVLW   high 0
006C   0097               M         MOVWF   TMR1H
                          M         MOVLF   TMR1L, low 0
006D   0020               M         BANKSEL TMR1L
006E   3000               M         MOVLW   low 0
006F   0096               M         MOVWF   TMR1L
0070   0020               M         BANKSEL T1CON
0071   1418               M         BSF     T1CON, TMR1ON
0072   0020               M         BANKSEL PIR1
0073   1C10               M         BTFSS   PIR1, TMR1IF
MPASM 5.77                        WS2813.ASM   8-13-2018  13:36:12         PAGE  9


LOC  OBJECT CODE     LINE SOURCE TEXT
  VALUE

0074   2???               M          GOTO $-1
0075   0020               M         BANKSEL T1CON
0076   1018               M         BCF     T1CON, TMR1ON
0077   0020               M         BANKSEL PIR1
0078   1010               M         BCF     PIR1, TMR1IF
                      00289     TMR1_DELAY  0
                          M         TMR1_OFFSET 0
0079   0020               M         BANKSEL TMR1H
                          M         MOVLF   TMR1H, high 0
007A   0020               M         BANKSEL TMR1H
007B   3000               M         MOVLW   high 0
007C   0097               M         MOVWF   TMR1H
                          M         MOVLF   TMR1L, low 0
007D   0020               M         BANKSEL TMR1L
007E   3000               M         MOVLW   low 0
007F   0096               M         MOVWF   TMR1L
0080   0020               M         BANKSEL T1CON
0081   1418               M         BSF     T1CON, TMR1ON
0082   0020               M         BANKSEL PIR1
0083   1C10               M         BTFSS   PIR1, TMR1IF
0084   2???               M          GOTO $-1
0085   0020               M         BANKSEL T1CON
0086   1018               M         BCF     T1CON, TMR1ON
0087   0020               M         BANKSEL PIR1
0088   1010               M         BCF     PIR1, TMR1IF
                      00290     TMR1_DELAY  0
                          M         TMR1_OFFSET 0
0089   0020               M         BANKSEL TMR1H
                          M         MOVLF   TMR1H, high 0
008A   0020               M         BANKSEL TMR1H
008B   3000               M         MOVLW   high 0
008C   0097               M         MOVWF   TMR1H
                          M         MOVLF   TMR1L, low 0
008D   0020               M         BANKSEL TMR1L
008E   3000               M         MOVLW   low 0
008F   0096               M         MOVWF   TMR1L
0090   0020               M         BANKSEL T1CON
0091   1418               M         BSF     T1CON, TMR1ON
0092   0020               M         BANKSEL PIR1
0093   1C10               M         BTFSS   PIR1, TMR1IF
0094   2???               M          GOTO $-1
0095   0020               M         BANKSEL T1CON
0096   1018               M         BCF     T1CON, TMR1ON
0097   0020               M         BANKSEL PIR1
0098   1010               M         BCF     PIR1, TMR1IF
                      00291     TMR1_DELAY  0
                          M         TMR1_OFFSET 0
0099   0020               M         BANKSEL TMR1H
                          M         MOVLF   TMR1H, high 0
009A   0020               M         BANKSEL TMR1H
009B   3000               M         MOVLW   high 0
009C   0097               M         MOVWF   TMR1H
                          M         MOVLF   TMR1L, low 0
MPASM 5.77                        WS2813.ASM   8-13-2018  13:36:12         PAGE 10


LOC  OBJECT CODE     LINE SOURCE TEXT
  VALUE

009D   0020               M         BANKSEL TMR1L
009E   3000               M         MOVLW   low 0
009F   0096               M         MOVWF   TMR1L
00A0   0020               M         BANKSEL T1CON
00A1   1418               M         BSF     T1CON, TMR1ON
00A2   0020               M         BANKSEL PIR1
00A3   1C10               M         BTFSS   PIR1, TMR1IF
00A4   2???               M          GOTO $-1
00A5   0020               M         BANKSEL T1CON
00A6   1018               M         BCF     T1CON, TMR1ON
00A7   0020               M         BANKSEL PIR1
00A8   1010               M         BCF     PIR1, TMR1IF
                      00292     TMR1_DELAY  0
                          M         TMR1_OFFSET 0
00A9   0020               M         BANKSEL TMR1H
                          M         MOVLF   TMR1H, high 0
00AA   0020               M         BANKSEL TMR1H
00AB   3000               M         MOVLW   high 0
00AC   0097               M         MOVWF   TMR1H
                          M         MOVLF   TMR1L, low 0
00AD   0020               M         BANKSEL TMR1L
00AE   3000               M         MOVLW   low 0
00AF   0096               M         MOVWF   TMR1L
00B0   0020               M         BANKSEL T1CON
00B1   1418               M         BSF     T1CON, TMR1ON
00B2   0020               M         BANKSEL PIR1
00B3   1C10               M         BTFSS   PIR1, TMR1IF
00B4   2???               M          GOTO $-1
00B5   0020               M         BANKSEL T1CON
00B6   1018               M         BCF     T1CON, TMR1ON
00B7   0020               M         BANKSEL PIR1
00B8   1010               M         BCF     PIR1, TMR1IF
                      00293     TMR1_DELAY  0
                          M         TMR1_OFFSET 0
00B9   0020               M         BANKSEL TMR1H
                          M         MOVLF   TMR1H, high 0
00BA   0020               M         BANKSEL TMR1H
00BB   3000               M         MOVLW   high 0
00BC   0097               M         MOVWF   TMR1H
                          M         MOVLF   TMR1L, low 0
00BD   0020               M         BANKSEL TMR1L
00BE   3000               M         MOVLW   low 0
00BF   0096               M         MOVWF   TMR1L
00C0   0020               M         BANKSEL T1CON
00C1   1418               M         BSF     T1CON, TMR1ON
00C2   0020               M         BANKSEL PIR1
00C3   1C10               M         BTFSS   PIR1, TMR1IF
00C4   2???               M          GOTO $-1
00C5   0020               M         BANKSEL T1CON
00C6   1018               M         BCF     T1CON, TMR1ON
00C7   0020               M         BANKSEL PIR1
00C8   1010               M         BCF     PIR1, TMR1IF
                      00294     TMR1_DELAY  0
MPASM 5.77                        WS2813.ASM   8-13-2018  13:36:12         PAGE 11


LOC  OBJECT CODE     LINE SOURCE TEXT
  VALUE

                          M         TMR1_OFFSET 0
00C9   0020               M         BANKSEL TMR1H
                          M         MOVLF   TMR1H, high 0
00CA   0020               M         BANKSEL TMR1H
00CB   3000               M         MOVLW   high 0
00CC   0097               M         MOVWF   TMR1H
                          M         MOVLF   TMR1L, low 0
00CD   0020               M         BANKSEL TMR1L
00CE   3000               M         MOVLW   low 0
00CF   0096               M         MOVWF   TMR1L
00D0   0020               M         BANKSEL T1CON
00D1   1418               M         BSF     T1CON, TMR1ON
00D2   0020               M         BANKSEL PIR1
00D3   1C10               M         BTFSS   PIR1, TMR1IF
00D4   2???               M          GOTO $-1
00D5   0020               M         BANKSEL T1CON
00D6   1018               M         BCF     T1CON, TMR1ON
00D7   0020               M         BANKSEL PIR1
00D8   1010               M         BCF     PIR1, TMR1IF
                      00295     TMR1_DELAY  0
                          M         TMR1_OFFSET 0
00D9   0020               M         BANKSEL TMR1H
                          M         MOVLF   TMR1H, high 0
00DA   0020               M         BANKSEL TMR1H
00DB   3000               M         MOVLW   high 0
00DC   0097               M         MOVWF   TMR1H
                          M         MOVLF   TMR1L, low 0
00DD   0020               M         BANKSEL TMR1L
00DE   3000               M         MOVLW   low 0
00DF   0096               M         MOVWF   TMR1L
00E0   0020               M         BANKSEL T1CON
00E1   1418               M         BSF     T1CON, TMR1ON
00E2   0020               M         BANKSEL PIR1
00E3   1C10               M         BTFSS   PIR1, TMR1IF
00E4   2???               M          GOTO $-1
00E5   0020               M         BANKSEL T1CON
00E6   1018               M         BCF     T1CON, TMR1ON
00E7   0020               M         BANKSEL PIR1
00E8   1010               M         BCF     PIR1, TMR1IF
                      00296     TMR1_DELAY  0
                          M         TMR1_OFFSET 0
00E9   0020               M         BANKSEL TMR1H
                          M         MOVLF   TMR1H, high 0
00EA   0020               M         BANKSEL TMR1H
00EB   3000               M         MOVLW   high 0
00EC   0097               M         MOVWF   TMR1H
                          M         MOVLF   TMR1L, low 0
00ED   0020               M         BANKSEL TMR1L
00EE   3000               M         MOVLW   low 0
00EF   0096               M         MOVWF   TMR1L
00F0   0020               M         BANKSEL T1CON
00F1   1418               M         BSF     T1CON, TMR1ON
00F2   0020               M         BANKSEL PIR1
MPASM 5.77                        WS2813.ASM   8-13-2018  13:36:12         PAGE 12


LOC  OBJECT CODE     LINE SOURCE TEXT
  VALUE

00F3   1C10               M         BTFSS   PIR1, TMR1IF
00F4   2???               M          GOTO $-1
00F5   0020               M         BANKSEL T1CON
00F6   1018               M         BCF     T1CON, TMR1ON
00F7   0020               M         BANKSEL PIR1
00F8   1010               M         BCF     PIR1, TMR1IF
                      00297     TMR1_DELAY  0
                          M         TMR1_OFFSET 0
00F9   0020               M         BANKSEL TMR1H
                          M         MOVLF   TMR1H, high 0
00FA   0020               M         BANKSEL TMR1H
00FB   3000               M         MOVLW   high 0
00FC   0097               M         MOVWF   TMR1H
                          M         MOVLF   TMR1L, low 0
00FD   0020               M         BANKSEL TMR1L
00FE   3000               M         MOVLW   low 0
00FF   0096               M         MOVWF   TMR1L
0100   0020               M         BANKSEL T1CON
0101   1418               M         BSF     T1CON, TMR1ON
0102   0020               M         BANKSEL PIR1
0103   1C10               M         BTFSS   PIR1, TMR1IF
0104   2???               M          GOTO $-1
0105   0020               M         BANKSEL T1CON
0106   1018               M         BCF     T1CON, TMR1ON
0107   0020               M         BANKSEL PIR1
0108   1010               M         BCF     PIR1, TMR1IF
                      00298     TMR1_DELAY  0
                          M         TMR1_OFFSET 0
0109   0020               M         BANKSEL TMR1H
                          M         MOVLF   TMR1H, high 0
010A   0020               M         BANKSEL TMR1H
010B   3000               M         MOVLW   high 0
010C   0097               M         MOVWF   TMR1H
                          M         MOVLF   TMR1L, low 0
010D   0020               M         BANKSEL TMR1L
010E   3000               M         MOVLW   low 0
010F   0096               M         MOVWF   TMR1L
0110   0020               M         BANKSEL T1CON
0111   1418               M         BSF     T1CON, TMR1ON
0112   0020               M         BANKSEL PIR1
0113   1C10               M         BTFSS   PIR1, TMR1IF
0114   2???               M          GOTO $-1
0115   0020               M         BANKSEL T1CON
0116   1018               M         BCF     T1CON, TMR1ON
0117   0020               M         BANKSEL PIR1
0118   1010               M         BCF     PIR1, TMR1IF
                      00299     TMR1_DELAY  0
                          M         TMR1_OFFSET 0
0119   0020               M         BANKSEL TMR1H
                          M         MOVLF   TMR1H, high 0
011A   0020               M         BANKSEL TMR1H
011B   3000               M         MOVLW   high 0
011C   0097               M         MOVWF   TMR1H
MPASM 5.77                        WS2813.ASM   8-13-2018  13:36:12         PAGE 13


LOC  OBJECT CODE     LINE SOURCE TEXT
  VALUE

                          M         MOVLF   TMR1L, low 0
011D   0020               M         BANKSEL TMR1L
011E   3000               M         MOVLW   low 0
011F   0096               M         MOVWF   TMR1L
0120   0020               M         BANKSEL T1CON
0121   1418               M         BSF     T1CON, TMR1ON
0122   0020               M         BANKSEL PIR1
0123   1C10               M         BTFSS   PIR1, TMR1IF
0124   2???               M          GOTO $-1
0125   0020               M         BANKSEL T1CON
0126   1018               M         BCF     T1CON, TMR1ON
0127   0020               M         BANKSEL PIR1
0128   1010               M         BCF     PIR1, TMR1IF
                      00300     TMR1_DELAY  0
                          M         TMR1_OFFSET 0
0129   0020               M         BANKSEL TMR1H
                          M         MOVLF   TMR1H, high 0
012A   0020               M         BANKSEL TMR1H
012B   3000               M         MOVLW   high 0
012C   0097               M         MOVWF   TMR1H
                          M         MOVLF   TMR1L, low 0
012D   0020               M         BANKSEL TMR1L
012E   3000               M         MOVLW   low 0
012F   0096               M         MOVWF   TMR1L
0130   0020               M         BANKSEL T1CON
0131   1418               M         BSF     T1CON, TMR1ON
0132   0020               M         BANKSEL PIR1
0133   1C10               M         BTFSS   PIR1, TMR1IF
0134   2???               M          GOTO $-1
0135   0020               M         BANKSEL T1CON
0136   1018               M         BCF     T1CON, TMR1ON
0137   0020               M         BANKSEL PIR1
0138   1010               M         BCF     PIR1, TMR1IF
                      00301     TMR1_DELAY  0
                          M         TMR1_OFFSET 0
0139   0020               M         BANKSEL TMR1H
                          M         MOVLF   TMR1H, high 0
013A   0020               M         BANKSEL TMR1H
013B   3000               M         MOVLW   high 0
013C   0097               M         MOVWF   TMR1H
                          M         MOVLF   TMR1L, low 0
013D   0020               M         BANKSEL TMR1L
013E   3000               M         MOVLW   low 0
013F   0096               M         MOVWF   TMR1L
0140   0020               M         BANKSEL T1CON
0141   1418               M         BSF     T1CON, TMR1ON
0142   0020               M         BANKSEL PIR1
0143   1C10               M         BTFSS   PIR1, TMR1IF
0144   2???               M          GOTO $-1
0145   0020               M         BANKSEL T1CON
0146   1018               M         BCF     T1CON, TMR1ON
0147   0020               M         BANKSEL PIR1
0148   1010               M         BCF     PIR1, TMR1IF
MPASM 5.77                        WS2813.ASM   8-13-2018  13:36:12         PAGE 14


LOC  OBJECT CODE     LINE SOURCE TEXT
  VALUE

                      00302     TMR1_DELAY  0
                          M         TMR1_OFFSET 0
0149   0020               M         BANKSEL TMR1H
                          M         MOVLF   TMR1H, high 0
014A   0020               M         BANKSEL TMR1H
014B   3000               M         MOVLW   high 0
014C   0097               M         MOVWF   TMR1H
                          M         MOVLF   TMR1L, low 0
014D   0020               M         BANKSEL TMR1L
014E   3000               M         MOVLW   low 0
014F   0096               M         MOVWF   TMR1L
0150   0020               M         BANKSEL T1CON
0151   1418               M         BSF     T1CON, TMR1ON
0152   0020               M         BANKSEL PIR1
0153   1C10               M         BTFSS   PIR1, TMR1IF
0154   2???               M          GOTO $-1
0155   0020               M         BANKSEL T1CON
0156   1018               M         BCF     T1CON, TMR1ON
0157   0020               M         BANKSEL PIR1
0158   1010               M         BCF     PIR1, TMR1IF
                      00303     TMR1_DELAY  0
                          M         TMR1_OFFSET 0
0159   0020               M         BANKSEL TMR1H
                          M         MOVLF   TMR1H, high 0
015A   0020               M         BANKSEL TMR1H
015B   3000               M         MOVLW   high 0
015C   0097               M         MOVWF   TMR1H
                          M         MOVLF   TMR1L, low 0
015D   0020               M         BANKSEL TMR1L
015E   3000               M         MOVLW   low 0
015F   0096               M         MOVWF   TMR1L
0160   0020               M         BANKSEL T1CON
0161   1418               M         BSF     T1CON, TMR1ON
0162   0020               M         BANKSEL PIR1
0163   1C10               M         BTFSS   PIR1, TMR1IF
0164   2???               M          GOTO $-1
0165   0020               M         BANKSEL T1CON
0166   1018               M         BCF     T1CON, TMR1ON
0167   0020               M         BANKSEL PIR1
0168   1010               M         BCF     PIR1, TMR1IF
                      00304     TMR1_DELAY  0
                          M         TMR1_OFFSET 0
0169   0020               M         BANKSEL TMR1H
                          M         MOVLF   TMR1H, high 0
016A   0020               M         BANKSEL TMR1H
016B   3000               M         MOVLW   high 0
016C   0097               M         MOVWF   TMR1H
                          M         MOVLF   TMR1L, low 0
016D   0020               M         BANKSEL TMR1L
016E   3000               M         MOVLW   low 0
016F   0096               M         MOVWF   TMR1L
0170   0020               M         BANKSEL T1CON
0171   1418               M         BSF     T1CON, TMR1ON
MPASM 5.77                        WS2813.ASM   8-13-2018  13:36:12         PAGE 15


LOC  OBJECT CODE     LINE SOURCE TEXT
  VALUE

0172   0020               M         BANKSEL PIR1
0173   1C10               M         BTFSS   PIR1, TMR1IF
0174   2???               M          GOTO $-1
0175   0020               M         BANKSEL T1CON
0176   1018               M         BCF     T1CON, TMR1ON
0177   0020               M         BANKSEL PIR1
0178   1010               M         BCF     PIR1, TMR1IF
                      00305     TMR1_DELAY  0
                          M         TMR1_OFFSET 0
0179   0020               M         BANKSEL TMR1H
                          M         MOVLF   TMR1H, high 0
017A   0020               M         BANKSEL TMR1H
017B   3000               M         MOVLW   high 0
017C   0097               M         MOVWF   TMR1H
                          M         MOVLF   TMR1L, low 0
017D   0020               M         BANKSEL TMR1L
017E   3000               M         MOVLW   low 0
017F   0096               M         MOVWF   TMR1L
0180   0020               M         BANKSEL T1CON
0181   1418               M         BSF     T1CON, TMR1ON
0182   0020               M         BANKSEL PIR1
0183   1C10               M         BTFSS   PIR1, TMR1IF
0184   2???               M          GOTO $-1
0185   0020               M         BANKSEL T1CON
0186   1018               M         BCF     T1CON, TMR1ON
0187   0020               M         BANKSEL PIR1
0188   1010               M         BCF     PIR1, TMR1IF
                      00306     TMR1_DELAY  0
                          M         TMR1_OFFSET 0
0189   0020               M         BANKSEL TMR1H
                          M         MOVLF   TMR1H, high 0
018A   0020               M         BANKSEL TMR1H
018B   3000               M         MOVLW   high 0
018C   0097               M         MOVWF   TMR1H
                          M         MOVLF   TMR1L, low 0
018D   0020               M         BANKSEL TMR1L
018E   3000               M         MOVLW   low 0
018F   0096               M         MOVWF   TMR1L
0190   0020               M         BANKSEL T1CON
0191   1418               M         BSF     T1CON, TMR1ON
0192   0020               M         BANKSEL PIR1
0193   1C10               M         BTFSS   PIR1, TMR1IF
0194   2???               M          GOTO $-1
0195   0020               M         BANKSEL T1CON
0196   1018               M         BCF     T1CON, TMR1ON
0197   0020               M         BANKSEL PIR1
0198   1010               M         BCF     PIR1, TMR1IF
                      00307     TMR1_DELAY  0
                          M         TMR1_OFFSET 0
0199   0020               M         BANKSEL TMR1H
                          M         MOVLF   TMR1H, high 0
019A   0020               M         BANKSEL TMR1H
019B   3000               M         MOVLW   high 0
MPASM 5.77                        WS2813.ASM   8-13-2018  13:36:12         PAGE 16


LOC  OBJECT CODE     LINE SOURCE TEXT
  VALUE

019C   0097               M         MOVWF   TMR1H
                          M         MOVLF   TMR1L, low 0
019D   0020               M         BANKSEL TMR1L
019E   3000               M         MOVLW   low 0
019F   0096               M         MOVWF   TMR1L
01A0   0020               M         BANKSEL T1CON
01A1   1418               M         BSF     T1CON, TMR1ON
01A2   0020               M         BANKSEL PIR1
01A3   1C10               M         BTFSS   PIR1, TMR1IF
01A4   2???               M          GOTO $-1
01A5   0020               M         BANKSEL T1CON
01A6   1018               M         BCF     T1CON, TMR1ON
01A7   0020               M         BANKSEL PIR1
01A8   1010               M         BCF     PIR1, TMR1IF
                      00308     TMR1_DELAY  0
                          M         TMR1_OFFSET 0
01A9   0020               M         BANKSEL TMR1H
                          M         MOVLF   TMR1H, high 0
01AA   0020               M         BANKSEL TMR1H
01AB   3000               M         MOVLW   high 0
01AC   0097               M         MOVWF   TMR1H
                          M         MOVLF   TMR1L, low 0
01AD   0020               M         BANKSEL TMR1L
01AE   3000               M         MOVLW   low 0
01AF   0096               M         MOVWF   TMR1L
01B0   0020               M         BANKSEL T1CON
01B1   1418               M         BSF     T1CON, TMR1ON
01B2   0020               M         BANKSEL PIR1
01B3   1C10               M         BTFSS   PIR1, TMR1IF
01B4   2???               M          GOTO $-1
01B5   0020               M         BANKSEL T1CON
01B6   1018               M         BCF     T1CON, TMR1ON
01B7   0020               M         BANKSEL PIR1
01B8   1010               M         BCF     PIR1, TMR1IF
                      00309     TMR1_DELAY  0
                          M         TMR1_OFFSET 0
01B9   0020               M         BANKSEL TMR1H
                          M         MOVLF   TMR1H, high 0
01BA   0020               M         BANKSEL TMR1H
01BB   3000               M         MOVLW   high 0
01BC   0097               M         MOVWF   TMR1H
                          M         MOVLF   TMR1L, low 0
01BD   0020               M         BANKSEL TMR1L
01BE   3000               M         MOVLW   low 0
01BF   0096               M         MOVWF   TMR1L
01C0   0020               M         BANKSEL T1CON
01C1   1418               M         BSF     T1CON, TMR1ON
01C2   0020               M         BANKSEL PIR1
01C3   1C10               M         BTFSS   PIR1, TMR1IF
01C4   2???               M          GOTO $-1
01C5   0020               M         BANKSEL T1CON
01C6   1018               M         BCF     T1CON, TMR1ON
01C7   0020               M         BANKSEL PIR1
MPASM 5.77                        WS2813.ASM   8-13-2018  13:36:12         PAGE 17


LOC  OBJECT CODE     LINE SOURCE TEXT
  VALUE

01C8   1010               M         BCF     PIR1, TMR1IF
                      00310     TMR1_DELAY  0
                          M         TMR1_OFFSET 0
01C9   0020               M         BANKSEL TMR1H
                          M         MOVLF   TMR1H, high 0
01CA   0020               M         BANKSEL TMR1H
01CB   3000               M         MOVLW   high 0
01CC   0097               M         MOVWF   TMR1H
                          M         MOVLF   TMR1L, low 0
01CD   0020               M         BANKSEL TMR1L
01CE   3000               M         MOVLW   low 0
01CF   0096               M         MOVWF   TMR1L
01D0   0020               M         BANKSEL T1CON
01D1   1418               M         BSF     T1CON, TMR1ON
01D2   0020               M         BANKSEL PIR1
01D3   1C10               M         BTFSS   PIR1, TMR1IF
01D4   2???               M          GOTO $-1
01D5   0020               M         BANKSEL T1CON
01D6   1018               M         BCF     T1CON, TMR1ON
01D7   0020               M         BANKSEL PIR1
01D8   1010               M         BCF     PIR1, TMR1IF
                      00311     TMR1_DELAY  0
                          M         TMR1_OFFSET 0
01D9   0020               M         BANKSEL TMR1H
                          M         MOVLF   TMR1H, high 0
01DA   0020               M         BANKSEL TMR1H
01DB   3000               M         MOVLW   high 0
01DC   0097               M         MOVWF   TMR1H
                          M         MOVLF   TMR1L, low 0
01DD   0020               M         BANKSEL TMR1L
01DE   3000               M         MOVLW   low 0
01DF   0096               M         MOVWF   TMR1L
01E0   0020               M         BANKSEL T1CON
01E1   1418               M         BSF     T1CON, TMR1ON
01E2   0020               M         BANKSEL PIR1
01E3   1C10               M         BTFSS   PIR1, TMR1IF
01E4   2???               M          GOTO $-1
01E5   0020               M         BANKSEL T1CON
01E6   1018               M         BCF     T1CON, TMR1ON
01E7   0020               M         BANKSEL PIR1
01E8   1010               M         BCF     PIR1, TMR1IF
                      00312     TMR1_DELAY  0
                          M         TMR1_OFFSET 0
01E9   0020               M         BANKSEL TMR1H
                          M         MOVLF   TMR1H, high 0
01EA   0020               M         BANKSEL TMR1H
01EB   3000               M         MOVLW   high 0
01EC   0097               M         MOVWF   TMR1H
                          M         MOVLF   TMR1L, low 0
01ED   0020               M         BANKSEL TMR1L
01EE   3000               M         MOVLW   low 0
01EF   0096               M         MOVWF   TMR1L
01F0   0020               M         BANKSEL T1CON
MPASM 5.77                        WS2813.ASM   8-13-2018  13:36:12         PAGE 18


LOC  OBJECT CODE     LINE SOURCE TEXT
  VALUE

01F1   1418               M         BSF     T1CON, TMR1ON
01F2   0020               M         BANKSEL PIR1
01F3   1C10               M         BTFSS   PIR1, TMR1IF
01F4   2???               M          GOTO $-1
01F5   0020               M         BANKSEL T1CON
01F6   1018               M         BCF     T1CON, TMR1ON
01F7   0020               M         BANKSEL PIR1
01F8   1010               M         BCF     PIR1, TMR1IF
                      00313     TMR1_DELAY  0
                          M         TMR1_OFFSET 0
01F9   0020               M         BANKSEL TMR1H
                          M         MOVLF   TMR1H, high 0
01FA   0020               M         BANKSEL TMR1H
01FB   3000               M         MOVLW   high 0
01FC   0097               M         MOVWF   TMR1H
                          M         MOVLF   TMR1L, low 0
01FD   0020               M         BANKSEL TMR1L
01FE   3000               M         MOVLW   low 0
01FF   0096               M         MOVWF   TMR1L
0200   0020               M         BANKSEL T1CON
0201   1418               M         BSF     T1CON, TMR1ON
0202   0020               M         BANKSEL PIR1
0203   1C10               M         BTFSS   PIR1, TMR1IF
0204   2???               M          GOTO $-1
0205   0020               M         BANKSEL T1CON
0206   1018               M         BCF     T1CON, TMR1ON
0207   0020               M         BANKSEL PIR1
0208   1010               M         BCF     PIR1, TMR1IF
                      00314     TMR1_DELAY  0
                          M         TMR1_OFFSET 0
0209   0020               M         BANKSEL TMR1H
                          M         MOVLF   TMR1H, high 0
020A   0020               M         BANKSEL TMR1H
020B   3000               M         MOVLW   high 0
020C   0097               M         MOVWF   TMR1H
                          M         MOVLF   TMR1L, low 0
020D   0020               M         BANKSEL TMR1L
020E   3000               M         MOVLW   low 0
020F   0096               M         MOVWF   TMR1L
0210   0020               M         BANKSEL T1CON
0211   1418               M         BSF     T1CON, TMR1ON
0212   0020               M         BANKSEL PIR1
0213   1C10               M         BTFSS   PIR1, TMR1IF
0214   2???               M          GOTO $-1
0215   0020               M         BANKSEL T1CON
0216   1018               M         BCF     T1CON, TMR1ON
0217   0020               M         BANKSEL PIR1
0218   1010               M         BCF     PIR1, TMR1IF
                      00315     TMR1_DELAY  0
                          M         TMR1_OFFSET 0
0219   0020               M         BANKSEL TMR1H
                          M         MOVLF   TMR1H, high 0
021A   0020               M         BANKSEL TMR1H
MPASM 5.77                        WS2813.ASM   8-13-2018  13:36:12         PAGE 19


LOC  OBJECT CODE     LINE SOURCE TEXT
  VALUE

021B   3000               M         MOVLW   high 0
021C   0097               M         MOVWF   TMR1H
                          M         MOVLF   TMR1L, low 0
021D   0020               M         BANKSEL TMR1L
021E   3000               M         MOVLW   low 0
021F   0096               M         MOVWF   TMR1L
0220   0020               M         BANKSEL T1CON
0221   1418               M         BSF     T1CON, TMR1ON
0222   0020               M         BANKSEL PIR1
0223   1C10               M         BTFSS   PIR1, TMR1IF
0224   2???               M          GOTO $-1
0225   0020               M         BANKSEL T1CON
0226   1018               M         BCF     T1CON, TMR1ON
0227   0020               M         BANKSEL PIR1
0228   1010               M         BCF     PIR1, TMR1IF
                      00316     TMR1_DELAY  0
                          M         TMR1_OFFSET 0
0229   0020               M         BANKSEL TMR1H
                          M         MOVLF   TMR1H, high 0
022A   0020               M         BANKSEL TMR1H
022B   3000               M         MOVLW   high 0
022C   0097               M         MOVWF   TMR1H
                          M         MOVLF   TMR1L, low 0
022D   0020               M         BANKSEL TMR1L
022E   3000               M         MOVLW   low 0
022F   0096               M         MOVWF   TMR1L
0230   0020               M         BANKSEL T1CON
0231   1418               M         BSF     T1CON, TMR1ON
0232   0020               M         BANKSEL PIR1
0233   1C10               M         BTFSS   PIR1, TMR1IF
0234   2???               M          GOTO $-1
0235   0020               M         BANKSEL T1CON
0236   1018               M         BCF     T1CON, TMR1ON
0237   0020               M         BANKSEL PIR1
0238   1010               M         BCF     PIR1, TMR1IF
                      00317     TMR1_DELAY  0
                          M         TMR1_OFFSET 0
0239   0020               M         BANKSEL TMR1H
                          M         MOVLF   TMR1H, high 0
023A   0020               M         BANKSEL TMR1H
023B   3000               M         MOVLW   high 0
023C   0097               M         MOVWF   TMR1H
                          M         MOVLF   TMR1L, low 0
023D   0020               M         BANKSEL TMR1L
023E   3000               M         MOVLW   low 0
023F   0096               M         MOVWF   TMR1L
0240   0020               M         BANKSEL T1CON
0241   1418               M         BSF     T1CON, TMR1ON
0242   0020               M         BANKSEL PIR1
0243   1C10               M         BTFSS   PIR1, TMR1IF
0244   2???               M          GOTO $-1
0245   0020               M         BANKSEL T1CON
0246   1018               M         BCF     T1CON, TMR1ON
MPASM 5.77                        WS2813.ASM   8-13-2018  13:36:12         PAGE 20


LOC  OBJECT CODE     LINE SOURCE TEXT
  VALUE

0247   0020               M         BANKSEL PIR1
0248   1010               M         BCF     PIR1, TMR1IF
                      00318     TMR1_DELAY  0
                          M         TMR1_OFFSET 0
0249   0020               M         BANKSEL TMR1H
                          M         MOVLF   TMR1H, high 0
024A   0020               M         BANKSEL TMR1H
024B   3000               M         MOVLW   high 0
024C   0097               M         MOVWF   TMR1H
                          M         MOVLF   TMR1L, low 0
024D   0020               M         BANKSEL TMR1L
024E   3000               M         MOVLW   low 0
024F   0096               M         MOVWF   TMR1L
0250   0020               M         BANKSEL T1CON
0251   1418               M         BSF     T1CON, TMR1ON
0252   0020               M         BANKSEL PIR1
0253   1C10               M         BTFSS   PIR1, TMR1IF
0254   2???               M          GOTO $-1
0255   0020               M         BANKSEL T1CON
0256   1018               M         BCF     T1CON, TMR1ON
0257   0020               M         BANKSEL PIR1
0258   1010               M         BCF     PIR1, TMR1IF
                      00319     TMR1_DELAY  0
                          M         TMR1_OFFSET 0
0259   0020               M         BANKSEL TMR1H
                          M         MOVLF   TMR1H, high 0
025A   0020               M         BANKSEL TMR1H
025B   3000               M         MOVLW   high 0
025C   0097               M         MOVWF   TMR1H
                          M         MOVLF   TMR1L, low 0
025D   0020               M         BANKSEL TMR1L
025E   3000               M         MOVLW   low 0
025F   0096               M         MOVWF   TMR1L
0260   0020               M         BANKSEL T1CON
0261   1418               M         BSF     T1CON, TMR1ON
0262   0020               M         BANKSEL PIR1
0263   1C10               M         BTFSS   PIR1, TMR1IF
0264   2???               M          GOTO $-1
0265   0020               M         BANKSEL T1CON
0266   1018               M         BCF     T1CON, TMR1ON
0267   0020               M         BANKSEL PIR1
0268   1010               M         BCF     PIR1, TMR1IF
                      00320     
Message[302]: Register in operand not in bank 0.  Ensure that bank bits are correct.
0269   118E           00321     BCF LATC, MSGEQ7_STROBE_PIN
                      00322     TMR1_DELAY  0
                          M         TMR1_OFFSET 0
026A   0020               M         BANKSEL TMR1H
                          M         MOVLF   TMR1H, high 0
026B   0020               M         BANKSEL TMR1H
026C   3000               M         MOVLW   high 0
026D   0097               M         MOVWF   TMR1H
                          M         MOVLF   TMR1L, low 0
MPASM 5.77                        WS2813.ASM   8-13-2018  13:36:12         PAGE 21


LOC  OBJECT CODE     LINE SOURCE TEXT
  VALUE

026E   0020               M         BANKSEL TMR1L
026F   3000               M         MOVLW   low 0
0270   0096               M         MOVWF   TMR1L
0271   0020               M         BANKSEL T1CON
0272   1418               M         BSF     T1CON, TMR1ON
0273   0020               M         BANKSEL PIR1
0274   1C10               M         BTFSS   PIR1, TMR1IF
0275   2???               M          GOTO $-1
0276   0020               M         BANKSEL T1CON
0277   1018               M         BCF     T1CON, TMR1ON
0278   0020               M         BANKSEL PIR1
0279   1010               M         BCF     PIR1, TMR1IF
                      00323     TMR1_DELAY  0
                          M         TMR1_OFFSET 0
027A   0020               M         BANKSEL TMR1H
                          M         MOVLF   TMR1H, high 0
027B   0020               M         BANKSEL TMR1H
027C   3000               M         MOVLW   high 0
027D   0097               M         MOVWF   TMR1H
                          M         MOVLF   TMR1L, low 0
027E   0020               M         BANKSEL TMR1L
027F   3000               M         MOVLW   low 0
0280   0096               M         MOVWF   TMR1L
0281   0020               M         BANKSEL T1CON
0282   1418               M         BSF     T1CON, TMR1ON
0283   0020               M         BANKSEL PIR1
0284   1C10               M         BTFSS   PIR1, TMR1IF
0285   2???               M          GOTO $-1
0286   0020               M         BANKSEL T1CON
0287   1018               M         BCF     T1CON, TMR1ON
0288   0020               M         BANKSEL PIR1
0289   1010               M         BCF     PIR1, TMR1IF
                      00324     TMR1_DELAY  0
                          M         TMR1_OFFSET 0
028A   0020               M         BANKSEL TMR1H
                          M         MOVLF   TMR1H, high 0
028B   0020               M         BANKSEL TMR1H
028C   3000               M         MOVLW   high 0
028D   0097               M         MOVWF   TMR1H
                          M         MOVLF   TMR1L, low 0
028E   0020               M         BANKSEL TMR1L
028F   3000               M         MOVLW   low 0
0290   0096               M         MOVWF   TMR1L
0291   0020               M         BANKSEL T1CON
0292   1418               M         BSF     T1CON, TMR1ON
0293   0020               M         BANKSEL PIR1
0294   1C10               M         BTFSS   PIR1, TMR1IF
0295   2???               M          GOTO $-1
0296   0020               M         BANKSEL T1CON
0297   1018               M         BCF     T1CON, TMR1ON
0298   0020               M         BANKSEL PIR1
0299   1010               M         BCF     PIR1, TMR1IF
                      00325     TMR1_DELAY  0
MPASM 5.77                        WS2813.ASM   8-13-2018  13:36:12         PAGE 22


LOC  OBJECT CODE     LINE SOURCE TEXT
  VALUE

                          M         TMR1_OFFSET 0
029A   0020               M         BANKSEL TMR1H
                          M         MOVLF   TMR1H, high 0
029B   0020               M         BANKSEL TMR1H
029C   3000               M         MOVLW   high 0
029D   0097               M         MOVWF   TMR1H
                          M         MOVLF   TMR1L, low 0
029E   0020               M         BANKSEL TMR1L
029F   3000               M         MOVLW   low 0
02A0   0096               M         MOVWF   TMR1L
02A1   0020               M         BANKSEL T1CON
02A2   1418               M         BSF     T1CON, TMR1ON
02A3   0020               M         BANKSEL PIR1
02A4   1C10               M         BTFSS   PIR1, TMR1IF
02A5   2???               M          GOTO $-1
02A6   0020               M         BANKSEL T1CON
02A7   1018               M         BCF     T1CON, TMR1ON
02A8   0020               M         BANKSEL PIR1
02A9   1010               M         BCF     PIR1, TMR1IF
                      00326     TMR1_DELAY  0
                          M         TMR1_OFFSET 0
02AA   0020               M         BANKSEL TMR1H
                          M         MOVLF   TMR1H, high 0
02AB   0020               M         BANKSEL TMR1H
02AC   3000               M         MOVLW   high 0
02AD   0097               M         MOVWF   TMR1H
                          M         MOVLF   TMR1L, low 0
02AE   0020               M         BANKSEL TMR1L
02AF   3000               M         MOVLW   low 0
02B0   0096               M         MOVWF   TMR1L
02B1   0020               M         BANKSEL T1CON
02B2   1418               M         BSF     T1CON, TMR1ON
02B3   0020               M         BANKSEL PIR1
02B4   1C10               M         BTFSS   PIR1, TMR1IF
02B5   2???               M          GOTO $-1
02B6   0020               M         BANKSEL T1CON
02B7   1018               M         BCF     T1CON, TMR1ON
02B8   0020               M         BANKSEL PIR1
02B9   1010               M         BCF     PIR1, TMR1IF
                      00327     TMR1_DELAY  0
                          M         TMR1_OFFSET 0
02BA   0020               M         BANKSEL TMR1H
                          M         MOVLF   TMR1H, high 0
02BB   0020               M         BANKSEL TMR1H
02BC   3000               M         MOVLW   high 0
02BD   0097               M         MOVWF   TMR1H
                          M         MOVLF   TMR1L, low 0
02BE   0020               M         BANKSEL TMR1L
02BF   3000               M         MOVLW   low 0
02C0   0096               M         MOVWF   TMR1L
02C1   0020               M         BANKSEL T1CON
02C2   1418               M         BSF     T1CON, TMR1ON
02C3   0020               M         BANKSEL PIR1
MPASM 5.77                        WS2813.ASM   8-13-2018  13:36:12         PAGE 23


LOC  OBJECT CODE     LINE SOURCE TEXT
  VALUE

02C4   1C10               M         BTFSS   PIR1, TMR1IF
02C5   2???               M          GOTO $-1
02C6   0020               M         BANKSEL T1CON
02C7   1018               M         BCF     T1CON, TMR1ON
02C8   0020               M         BANKSEL PIR1
02C9   1010               M         BCF     PIR1, TMR1IF
                      00328     TMR1_DELAY  0
                          M         TMR1_OFFSET 0
02CA   0020               M         BANKSEL TMR1H
                          M         MOVLF   TMR1H, high 0
02CB   0020               M         BANKSEL TMR1H
02CC   3000               M         MOVLW   high 0
02CD   0097               M         MOVWF   TMR1H
                          M         MOVLF   TMR1L, low 0
02CE   0020               M         BANKSEL TMR1L
02CF   3000               M         MOVLW   low 0
02D0   0096               M         MOVWF   TMR1L
02D1   0020               M         BANKSEL T1CON
02D2   1418               M         BSF     T1CON, TMR1ON
02D3   0020               M         BANKSEL PIR1
02D4   1C10               M         BTFSS   PIR1, TMR1IF
02D5   2???               M          GOTO $-1
02D6   0020               M         BANKSEL T1CON
02D7   1018               M         BCF     T1CON, TMR1ON
02D8   0020               M         BANKSEL PIR1
02D9   1010               M         BCF     PIR1, TMR1IF
                      00329     TMR1_DELAY  0
                          M         TMR1_OFFSET 0
02DA   0020               M         BANKSEL TMR1H
                          M         MOVLF   TMR1H, high 0
02DB   0020               M         BANKSEL TMR1H
02DC   3000               M         MOVLW   high 0
02DD   0097               M         MOVWF   TMR1H
                          M         MOVLF   TMR1L, low 0
02DE   0020               M         BANKSEL TMR1L
02DF   3000               M         MOVLW   low 0
02E0   0096               M         MOVWF   TMR1L
02E1   0020               M         BANKSEL T1CON
02E2   1418               M         BSF     T1CON, TMR1ON
02E3   0020               M         BANKSEL PIR1
02E4   1C10               M         BTFSS   PIR1, TMR1IF
02E5   2???               M          GOTO $-1
02E6   0020               M         BANKSEL T1CON
02E7   1018               M         BCF     T1CON, TMR1ON
02E8   0020               M         BANKSEL PIR1
02E9   1010               M         BCF     PIR1, TMR1IF
                      00330     TMR1_DELAY  0
                          M         TMR1_OFFSET 0
02EA   0020               M         BANKSEL TMR1H
                          M         MOVLF   TMR1H, high 0
02EB   0020               M         BANKSEL TMR1H
02EC   3000               M         MOVLW   high 0
02ED   0097               M         MOVWF   TMR1H
MPASM 5.77                        WS2813.ASM   8-13-2018  13:36:12         PAGE 24


LOC  OBJECT CODE     LINE SOURCE TEXT
  VALUE

                          M         MOVLF   TMR1L, low 0
02EE   0020               M         BANKSEL TMR1L
02EF   3000               M         MOVLW   low 0
02F0   0096               M         MOVWF   TMR1L
02F1   0020               M         BANKSEL T1CON
02F2   1418               M         BSF     T1CON, TMR1ON
02F3   0020               M         BANKSEL PIR1
02F4   1C10               M         BTFSS   PIR1, TMR1IF
02F5   2???               M          GOTO $-1
02F6   0020               M         BANKSEL T1CON
02F7   1018               M         BCF     T1CON, TMR1ON
02F8   0020               M         BANKSEL PIR1
02F9   1010               M         BCF     PIR1, TMR1IF
                      00331     TMR1_DELAY  0
                          M         TMR1_OFFSET 0
02FA   0020               M         BANKSEL TMR1H
                          M         MOVLF   TMR1H, high 0
02FB   0020               M         BANKSEL TMR1H
02FC   3000               M         MOVLW   high 0
02FD   0097               M         MOVWF   TMR1H
                          M         MOVLF   TMR1L, low 0
02FE   0020               M         BANKSEL TMR1L
02FF   3000               M         MOVLW   low 0
0300   0096               M         MOVWF   TMR1L
0301   0020               M         BANKSEL T1CON
0302   1418               M         BSF     T1CON, TMR1ON
0303   0020               M         BANKSEL PIR1
0304   1C10               M         BTFSS   PIR1, TMR1IF
0305   2???               M          GOTO $-1
0306   0020               M         BANKSEL T1CON
0307   1018               M         BCF     T1CON, TMR1ON
0308   0020               M         BANKSEL PIR1
0309   1010               M         BCF     PIR1, TMR1IF
                      00332     TMR1_DELAY  0
                          M         TMR1_OFFSET 0
030A   0020               M         BANKSEL TMR1H
                          M         MOVLF   TMR1H, high 0
030B   0020               M         BANKSEL TMR1H
030C   3000               M         MOVLW   high 0
030D   0097               M         MOVWF   TMR1H
                          M         MOVLF   TMR1L, low 0
030E   0020               M         BANKSEL TMR1L
030F   3000               M         MOVLW   low 0
0310   0096               M         MOVWF   TMR1L
0311   0020               M         BANKSEL T1CON
0312   1418               M         BSF     T1CON, TMR1ON
0313   0020               M         BANKSEL PIR1
0314   1C10               M         BTFSS   PIR1, TMR1IF
0315   2???               M          GOTO $-1
0316   0020               M         BANKSEL T1CON
0317   1018               M         BCF     T1CON, TMR1ON
0318   0020               M         BANKSEL PIR1
0319   1010               M         BCF     PIR1, TMR1IF
MPASM 5.77                        WS2813.ASM   8-13-2018  13:36:12         PAGE 25


LOC  OBJECT CODE     LINE SOURCE TEXT
  VALUE

                      00333     TMR1_DELAY  0
                          M         TMR1_OFFSET 0
031A   0020               M         BANKSEL TMR1H
                          M         MOVLF   TMR1H, high 0
031B   0020               M         BANKSEL TMR1H
031C   3000               M         MOVLW   high 0
031D   0097               M         MOVWF   TMR1H
                          M         MOVLF   TMR1L, low 0
031E   0020               M         BANKSEL TMR1L
031F   3000               M         MOVLW   low 0
0320   0096               M         MOVWF   TMR1L
0321   0020               M         BANKSEL T1CON
0322   1418               M         BSF     T1CON, TMR1ON
0323   0020               M         BANKSEL PIR1
0324   1C10               M         BTFSS   PIR1, TMR1IF
0325   2???               M          GOTO $-1
0326   0020               M         BANKSEL T1CON
0327   1018               M         BCF     T1CON, TMR1ON
0328   0020               M         BANKSEL PIR1
0329   1010               M         BCF     PIR1, TMR1IF
                      00334     TMR1_DELAY  0
                          M         TMR1_OFFSET 0
032A   0020               M         BANKSEL TMR1H
                          M         MOVLF   TMR1H, high 0
032B   0020               M         BANKSEL TMR1H
032C   3000               M         MOVLW   high 0
032D   0097               M         MOVWF   TMR1H
                          M         MOVLF   TMR1L, low 0
032E   0020               M         BANKSEL TMR1L
032F   3000               M         MOVLW   low 0
0330   0096               M         MOVWF   TMR1L
0331   0020               M         BANKSEL T1CON
0332   1418               M         BSF     T1CON, TMR1ON
0333   0020               M         BANKSEL PIR1
0334   1C10               M         BTFSS   PIR1, TMR1IF
0335   2???               M          GOTO $-1
0336   0020               M         BANKSEL T1CON
0337   1018               M         BCF     T1CON, TMR1ON
0338   0020               M         BANKSEL PIR1
0339   1010               M         BCF     PIR1, TMR1IF
                      00335     TMR1_DELAY  0
                          M         TMR1_OFFSET 0
033A   0020               M         BANKSEL TMR1H
                          M         MOVLF   TMR1H, high 0
033B   0020               M         BANKSEL TMR1H
033C   3000               M         MOVLW   high 0
033D   0097               M         MOVWF   TMR1H
                          M         MOVLF   TMR1L, low 0
033E   0020               M         BANKSEL TMR1L
033F   3000               M         MOVLW   low 0
0340   0096               M         MOVWF   TMR1L
0341   0020               M         BANKSEL T1CON
0342   1418               M         BSF     T1CON, TMR1ON
MPASM 5.77                        WS2813.ASM   8-13-2018  13:36:12         PAGE 26


LOC  OBJECT CODE     LINE SOURCE TEXT
  VALUE

0343   0020               M         BANKSEL PIR1
0344   1C10               M         BTFSS   PIR1, TMR1IF
0345   2???               M          GOTO $-1
0346   0020               M         BANKSEL T1CON
0347   1018               M         BCF     T1CON, TMR1ON
0348   0020               M         BANKSEL PIR1
0349   1010               M         BCF     PIR1, TMR1IF
                      00336     TMR1_DELAY  0
                          M         TMR1_OFFSET 0
034A   0020               M         BANKSEL TMR1H
                          M         MOVLF   TMR1H, high 0
034B   0020               M         BANKSEL TMR1H
034C   3000               M         MOVLW   high 0
034D   0097               M         MOVWF   TMR1H
                          M         MOVLF   TMR1L, low 0
034E   0020               M         BANKSEL TMR1L
034F   3000               M         MOVLW   low 0
0350   0096               M         MOVWF   TMR1L
0351   0020               M         BANKSEL T1CON
0352   1418               M         BSF     T1CON, TMR1ON
0353   0020               M         BANKSEL PIR1
0354   1C10               M         BTFSS   PIR1, TMR1IF
0355   2???               M          GOTO $-1
0356   0020               M         BANKSEL T1CON
0357   1018               M         BCF     T1CON, TMR1ON
0358   0020               M         BANKSEL PIR1
0359   1010               M         BCF     PIR1, TMR1IF
                      00337     TMR1_DELAY  0
                          M         TMR1_OFFSET 0
035A   0020               M         BANKSEL TMR1H
                          M         MOVLF   TMR1H, high 0
035B   0020               M         BANKSEL TMR1H
035C   3000               M         MOVLW   high 0
035D   0097               M         MOVWF   TMR1H
                          M         MOVLF   TMR1L, low 0
035E   0020               M         BANKSEL TMR1L
035F   3000               M         MOVLW   low 0
0360   0096               M         MOVWF   TMR1L
0361   0020               M         BANKSEL T1CON
0362   1418               M         BSF     T1CON, TMR1ON
0363   0020               M         BANKSEL PIR1
0364   1C10               M         BTFSS   PIR1, TMR1IF
0365   2???               M          GOTO $-1
0366   0020               M         BANKSEL T1CON
0367   1018               M         BCF     T1CON, TMR1ON
0368   0020               M         BANKSEL PIR1
0369   1010               M         BCF     PIR1, TMR1IF
                      00338     TMR1_DELAY  0
                          M         TMR1_OFFSET 0
036A   0020               M         BANKSEL TMR1H
                          M         MOVLF   TMR1H, high 0
036B   0020               M         BANKSEL TMR1H
036C   3000               M         MOVLW   high 0
MPASM 5.77                        WS2813.ASM   8-13-2018  13:36:12         PAGE 27


LOC  OBJECT CODE     LINE SOURCE TEXT
  VALUE

036D   0097               M         MOVWF   TMR1H
                          M         MOVLF   TMR1L, low 0
036E   0020               M         BANKSEL TMR1L
036F   3000               M         MOVLW   low 0
0370   0096               M         MOVWF   TMR1L
0371   0020               M         BANKSEL T1CON
0372   1418               M         BSF     T1CON, TMR1ON
0373   0020               M         BANKSEL PIR1
0374   1C10               M         BTFSS   PIR1, TMR1IF
0375   2???               M          GOTO $-1
0376   0020               M         BANKSEL T1CON
0377   1018               M         BCF     T1CON, TMR1ON
0378   0020               M         BANKSEL PIR1
0379   1010               M         BCF     PIR1, TMR1IF
                      00339     TMR1_DELAY  0
                          M         TMR1_OFFSET 0
037A   0020               M         BANKSEL TMR1H
                          M         MOVLF   TMR1H, high 0
037B   0020               M         BANKSEL TMR1H
037C   3000               M         MOVLW   high 0
037D   0097               M         MOVWF   TMR1H
                          M         MOVLF   TMR1L, low 0
037E   0020               M         BANKSEL TMR1L
037F   3000               M         MOVLW   low 0
0380   0096               M         MOVWF   TMR1L
0381   0020               M         BANKSEL T1CON
0382   1418               M         BSF     T1CON, TMR1ON
0383   0020               M         BANKSEL PIR1
0384   1C10               M         BTFSS   PIR1, TMR1IF
0385   2???               M          GOTO $-1
0386   0020               M         BANKSEL T1CON
0387   1018               M         BCF     T1CON, TMR1ON
0388   0020               M         BANKSEL PIR1
0389   1010               M         BCF     PIR1, TMR1IF
                      00340     TMR1_DELAY  0
                          M         TMR1_OFFSET 0
038A   0020               M         BANKSEL TMR1H
                          M         MOVLF   TMR1H, high 0
038B   0020               M         BANKSEL TMR1H
038C   3000               M         MOVLW   high 0
038D   0097               M         MOVWF   TMR1H
                          M         MOVLF   TMR1L, low 0
038E   0020               M         BANKSEL TMR1L
038F   3000               M         MOVLW   low 0
0390   0096               M         MOVWF   TMR1L
0391   0020               M         BANKSEL T1CON
0392   1418               M         BSF     T1CON, TMR1ON
0393   0020               M         BANKSEL PIR1
0394   1C10               M         BTFSS   PIR1, TMR1IF
0395   2???               M          GOTO $-1
0396   0020               M         BANKSEL T1CON
0397   1018               M         BCF     T1CON, TMR1ON
0398   0020               M         BANKSEL PIR1
MPASM 5.77                        WS2813.ASM   8-13-2018  13:36:12         PAGE 28


LOC  OBJECT CODE     LINE SOURCE TEXT
  VALUE

0399   1010               M         BCF     PIR1, TMR1IF
                      00341     TMR1_DELAY  0
                          M         TMR1_OFFSET 0
039A   0020               M         BANKSEL TMR1H
                          M         MOVLF   TMR1H, high 0
039B   0020               M         BANKSEL TMR1H
039C   3000               M         MOVLW   high 0
039D   0097               M         MOVWF   TMR1H
                          M         MOVLF   TMR1L, low 0
039E   0020               M         BANKSEL TMR1L
039F   3000               M         MOVLW   low 0
03A0   0096               M         MOVWF   TMR1L
03A1   0020               M         BANKSEL T1CON
03A2   1418               M         BSF     T1CON, TMR1ON
03A3   0020               M         BANKSEL PIR1
03A4   1C10               M         BTFSS   PIR1, TMR1IF
03A5   2???               M          GOTO $-1
03A6   0020               M         BANKSEL T1CON
03A7   1018               M         BCF     T1CON, TMR1ON
03A8   0020               M         BANKSEL PIR1
03A9   1010               M         BCF     PIR1, TMR1IF
                      00342     TMR1_DELAY  0
                          M         TMR1_OFFSET 0
03AA   0020               M         BANKSEL TMR1H
                          M         MOVLF   TMR1H, high 0
03AB   0020               M         BANKSEL TMR1H
03AC   3000               M         MOVLW   high 0
03AD   0097               M         MOVWF   TMR1H
                          M         MOVLF   TMR1L, low 0
03AE   0020               M         BANKSEL TMR1L
03AF   3000               M         MOVLW   low 0
03B0   0096               M         MOVWF   TMR1L
03B1   0020               M         BANKSEL T1CON
03B2   1418               M         BSF     T1CON, TMR1ON
03B3   0020               M         BANKSEL PIR1
03B4   1C10               M         BTFSS   PIR1, TMR1IF
03B5   2???               M          GOTO $-1
03B6   0020               M         BANKSEL T1CON
03B7   1018               M         BCF     T1CON, TMR1ON
03B8   0020               M         BANKSEL PIR1
03B9   1010               M         BCF     PIR1, TMR1IF
                      00343     TMR1_DELAY  0
                          M         TMR1_OFFSET 0
03BA   0020               M         BANKSEL TMR1H
                          M         MOVLF   TMR1H, high 0
03BB   0020               M         BANKSEL TMR1H
03BC   3000               M         MOVLW   high 0
03BD   0097               M         MOVWF   TMR1H
                          M         MOVLF   TMR1L, low 0
03BE   0020               M         BANKSEL TMR1L
03BF   3000               M         MOVLW   low 0
03C0   0096               M         MOVWF   TMR1L
03C1   0020               M         BANKSEL T1CON
MPASM 5.77                        WS2813.ASM   8-13-2018  13:36:12         PAGE 29


LOC  OBJECT CODE     LINE SOURCE TEXT
  VALUE

03C2   1418               M         BSF     T1CON, TMR1ON
03C3   0020               M         BANKSEL PIR1
03C4   1C10               M         BTFSS   PIR1, TMR1IF
03C5   2???               M          GOTO $-1
03C6   0020               M         BANKSEL T1CON
03C7   1018               M         BCF     T1CON, TMR1ON
03C8   0020               M         BANKSEL PIR1
03C9   1010               M         BCF     PIR1, TMR1IF
                      00344     TMR1_DELAY  0
                          M         TMR1_OFFSET 0
03CA   0020               M         BANKSEL TMR1H
                          M         MOVLF   TMR1H, high 0
03CB   0020               M         BANKSEL TMR1H
03CC   3000               M         MOVLW   high 0
03CD   0097               M         MOVWF   TMR1H
                          M         MOVLF   TMR1L, low 0
03CE   0020               M         BANKSEL TMR1L
03CF   3000               M         MOVLW   low 0
03D0   0096               M         MOVWF   TMR1L
03D1   0020               M         BANKSEL T1CON
03D2   1418               M         BSF     T1CON, TMR1ON
03D3   0020               M         BANKSEL PIR1
03D4   1C10               M         BTFSS   PIR1, TMR1IF
03D5   2???               M          GOTO $-1
03D6   0020               M         BANKSEL T1CON
03D7   1018               M         BCF     T1CON, TMR1ON
03D8   0020               M         BANKSEL PIR1
03D9   1010               M         BCF     PIR1, TMR1IF
                      00345     TMR1_DELAY  0
                          M         TMR1_OFFSET 0
03DA   0020               M         BANKSEL TMR1H
                          M         MOVLF   TMR1H, high 0
03DB   0020               M         BANKSEL TMR1H
03DC   3000               M         MOVLW   high 0
03DD   0097               M         MOVWF   TMR1H
                          M         MOVLF   TMR1L, low 0
03DE   0020               M         BANKSEL TMR1L
03DF   3000               M         MOVLW   low 0
03E0   0096               M         MOVWF   TMR1L
03E1   0020               M         BANKSEL T1CON
03E2   1418               M         BSF     T1CON, TMR1ON
03E3   0020               M         BANKSEL PIR1
03E4   1C10               M         BTFSS   PIR1, TMR1IF
03E5   2???               M          GOTO $-1
03E6   0020               M         BANKSEL T1CON
03E7   1018               M         BCF     T1CON, TMR1ON
03E8   0020               M         BANKSEL PIR1
03E9   1010               M         BCF     PIR1, TMR1IF
                      00346     TMR1_DELAY  0
                          M         TMR1_OFFSET 0
03EA   0020               M         BANKSEL TMR1H
                          M         MOVLF   TMR1H, high 0
03EB   0020               M         BANKSEL TMR1H
MPASM 5.77                        WS2813.ASM   8-13-2018  13:36:12         PAGE 30


LOC  OBJECT CODE     LINE SOURCE TEXT
  VALUE

03EC   3000               M         MOVLW   high 0
03ED   0097               M         MOVWF   TMR1H
                          M         MOVLF   TMR1L, low 0
03EE   0020               M         BANKSEL TMR1L
03EF   3000               M         MOVLW   low 0
03F0   0096               M         MOVWF   TMR1L
03F1   0020               M         BANKSEL T1CON
03F2   1418               M         BSF     T1CON, TMR1ON
03F3   0020               M         BANKSEL PIR1
03F4   1C10               M         BTFSS   PIR1, TMR1IF
03F5   2???               M          GOTO $-1
03F6   0020               M         BANKSEL T1CON
03F7   1018               M         BCF     T1CON, TMR1ON
03F8   0020               M         BANKSEL PIR1
03F9   1010               M         BCF     PIR1, TMR1IF
                      00347     TMR1_DELAY  0
                          M         TMR1_OFFSET 0
03FA   0020               M         BANKSEL TMR1H
                          M         MOVLF   TMR1H, high 0
03FB   0020               M         BANKSEL TMR1H
03FC   3000               M         MOVLW   high 0
03FD   0097               M         MOVWF   TMR1H
                          M         MOVLF   TMR1L, low 0
03FE   0020               M         BANKSEL TMR1L
03FF   3000               M         MOVLW   low 0
0400   0096               M         MOVWF   TMR1L
0401   0020               M         BANKSEL T1CON
0402   1418               M         BSF     T1CON, TMR1ON
0403   0020               M         BANKSEL PIR1
0404   1C10               M         BTFSS   PIR1, TMR1IF
0405   2???               M          GOTO $-1
0406   0020               M         BANKSEL T1CON
0407   1018               M         BCF     T1CON, TMR1ON
0408   0020               M         BANKSEL PIR1
0409   1010               M         BCF     PIR1, TMR1IF
                      00348     TMR1_DELAY  0
                          M         TMR1_OFFSET 0
040A   0020               M         BANKSEL TMR1H
                          M         MOVLF   TMR1H, high 0
040B   0020               M         BANKSEL TMR1H
040C   3000               M         MOVLW   high 0
040D   0097               M         MOVWF   TMR1H
                          M         MOVLF   TMR1L, low 0
040E   0020               M         BANKSEL TMR1L
040F   3000               M         MOVLW   low 0
0410   0096               M         MOVWF   TMR1L
0411   0020               M         BANKSEL T1CON
0412   1418               M         BSF     T1CON, TMR1ON
0413   0020               M         BANKSEL PIR1
0414   1C10               M         BTFSS   PIR1, TMR1IF
0415   2???               M          GOTO $-1
0416   0020               M         BANKSEL T1CON
0417   1018               M         BCF     T1CON, TMR1ON
MPASM 5.77                        WS2813.ASM   8-13-2018  13:36:12         PAGE 31


LOC  OBJECT CODE     LINE SOURCE TEXT
  VALUE

0418   0020               M         BANKSEL PIR1
0419   1010               M         BCF     PIR1, TMR1IF
                      00349     TMR1_DELAY  0
                          M         TMR1_OFFSET 0
041A   0020               M         BANKSEL TMR1H
                          M         MOVLF   TMR1H, high 0
041B   0020               M         BANKSEL TMR1H
041C   3000               M         MOVLW   high 0
041D   0097               M         MOVWF   TMR1H
                          M         MOVLF   TMR1L, low 0
041E   0020               M         BANKSEL TMR1L
041F   3000               M         MOVLW   low 0
0420   0096               M         MOVWF   TMR1L
0421   0020               M         BANKSEL T1CON
0422   1418               M         BSF     T1CON, TMR1ON
0423   0020               M         BANKSEL PIR1
0424   1C10               M         BTFSS   PIR1, TMR1IF
0425   2???               M          GOTO $-1
0426   0020               M         BANKSEL T1CON
0427   1018               M         BCF     T1CON, TMR1ON
0428   0020               M         BANKSEL PIR1
0429   1010               M         BCF     PIR1, TMR1IF
                      00350     TMR1_DELAY  0
                          M         TMR1_OFFSET 0
042A   0020               M         BANKSEL TMR1H
                          M         MOVLF   TMR1H, high 0
042B   0020               M         BANKSEL TMR1H
042C   3000               M         MOVLW   high 0
042D   0097               M         MOVWF   TMR1H
                          M         MOVLF   TMR1L, low 0
042E   0020               M         BANKSEL TMR1L
042F   3000               M         MOVLW   low 0
0430   0096               M         MOVWF   TMR1L
0431   0020               M         BANKSEL T1CON
0432   1418               M         BSF     T1CON, TMR1ON
0433   0020               M         BANKSEL PIR1
0434   1C10               M         BTFSS   PIR1, TMR1IF
0435   2???               M          GOTO $-1
0436   0020               M         BANKSEL T1CON
0437   1018               M         BCF     T1CON, TMR1ON
0438   0020               M         BANKSEL PIR1
0439   1010               M         BCF     PIR1, TMR1IF
                      00351     TMR1_DELAY  0
                          M         TMR1_OFFSET 0
043A   0020               M         BANKSEL TMR1H
                          M         MOVLF   TMR1H, high 0
043B   0020               M         BANKSEL TMR1H
043C   3000               M         MOVLW   high 0
043D   0097               M         MOVWF   TMR1H
                          M         MOVLF   TMR1L, low 0
043E   0020               M         BANKSEL TMR1L
043F   3000               M         MOVLW   low 0
0440   0096               M         MOVWF   TMR1L
MPASM 5.77                        WS2813.ASM   8-13-2018  13:36:12         PAGE 32


LOC  OBJECT CODE     LINE SOURCE TEXT
  VALUE

0441   0020               M         BANKSEL T1CON
0442   1418               M         BSF     T1CON, TMR1ON
0443   0020               M         BANKSEL PIR1
0444   1C10               M         BTFSS   PIR1, TMR1IF
0445   2???               M          GOTO $-1
0446   0020               M         BANKSEL T1CON
0447   1018               M         BCF     T1CON, TMR1ON
0448   0020               M         BANKSEL PIR1
0449   1010               M         BCF     PIR1, TMR1IF
                      00352     TMR1_DELAY  0
                          M         TMR1_OFFSET 0
044A   0020               M         BANKSEL TMR1H
                          M         MOVLF   TMR1H, high 0
044B   0020               M         BANKSEL TMR1H
044C   3000               M         MOVLW   high 0
044D   0097               M         MOVWF   TMR1H
                          M         MOVLF   TMR1L, low 0
044E   0020               M         BANKSEL TMR1L
044F   3000               M         MOVLW   low 0
0450   0096               M         MOVWF   TMR1L
0451   0020               M         BANKSEL T1CON
0452   1418               M         BSF     T1CON, TMR1ON
0453   0020               M         BANKSEL PIR1
0454   1C10               M         BTFSS   PIR1, TMR1IF
0455   2???               M          GOTO $-1
0456   0020               M         BANKSEL T1CON
0457   1018               M         BCF     T1CON, TMR1ON
0458   0020               M         BANKSEL PIR1
0459   1010               M         BCF     PIR1, TMR1IF
                      00353     TMR1_DELAY  0
                          M         TMR1_OFFSET 0
045A   0020               M         BANKSEL TMR1H
                          M         MOVLF   TMR1H, high 0
045B   0020               M         BANKSEL TMR1H
045C   3000               M         MOVLW   high 0
045D   0097               M         MOVWF   TMR1H
                          M         MOVLF   TMR1L, low 0
045E   0020               M         BANKSEL TMR1L
045F   3000               M         MOVLW   low 0
0460   0096               M         MOVWF   TMR1L
0461   0020               M         BANKSEL T1CON
0462   1418               M         BSF     T1CON, TMR1ON
0463   0020               M         BANKSEL PIR1
0464   1C10               M         BTFSS   PIR1, TMR1IF
0465   2???               M          GOTO $-1
0466   0020               M         BANKSEL T1CON
0467   1018               M         BCF     T1CON, TMR1ON
0468   0020               M         BANKSEL PIR1
0469   1010               M         BCF     PIR1, TMR1IF
                      00354     TMR1_DELAY  0
                          M         TMR1_OFFSET 0
046A   0020               M         BANKSEL TMR1H
                          M         MOVLF   TMR1H, high 0
MPASM 5.77                        WS2813.ASM   8-13-2018  13:36:12         PAGE 33


LOC  OBJECT CODE     LINE SOURCE TEXT
  VALUE

046B   0020               M         BANKSEL TMR1H
046C   3000               M         MOVLW   high 0
046D   0097               M         MOVWF   TMR1H
                          M         MOVLF   TMR1L, low 0
046E   0020               M         BANKSEL TMR1L
046F   3000               M         MOVLW   low 0
0470   0096               M         MOVWF   TMR1L
0471   0020               M         BANKSEL T1CON
0472   1418               M         BSF     T1CON, TMR1ON
0473   0020               M         BANKSEL PIR1
0474   1C10               M         BTFSS   PIR1, TMR1IF
0475   2???               M          GOTO $-1
0476   0020               M         BANKSEL T1CON
0477   1018               M         BCF     T1CON, TMR1ON
0478   0020               M         BANKSEL PIR1
0479   1010               M         BCF     PIR1, TMR1IF
                      00355     TMR1_DELAY  0
                          M         TMR1_OFFSET 0
047A   0020               M         BANKSEL TMR1H
                          M         MOVLF   TMR1H, high 0
047B   0020               M         BANKSEL TMR1H
047C   3000               M         MOVLW   high 0
047D   0097               M         MOVWF   TMR1H
                          M         MOVLF   TMR1L, low 0
047E   0020               M         BANKSEL TMR1L
047F   3000               M         MOVLW   low 0
0480   0096               M         MOVWF   TMR1L
0481   0020               M         BANKSEL T1CON
0482   1418               M         BSF     T1CON, TMR1ON
0483   0020               M         BANKSEL PIR1
0484   1C10               M         BTFSS   PIR1, TMR1IF
0485   2???               M          GOTO $-1
0486   0020               M         BANKSEL T1CON
0487   1018               M         BCF     T1CON, TMR1ON
0488   0020               M         BANKSEL PIR1
0489   1010               M         BCF     PIR1, TMR1IF
                      00356     TMR1_DELAY  0
                          M         TMR1_OFFSET 0
048A   0020               M         BANKSEL TMR1H
                          M         MOVLF   TMR1H, high 0
048B   0020               M         BANKSEL TMR1H
048C   3000               M         MOVLW   high 0
048D   0097               M         MOVWF   TMR1H
                          M         MOVLF   TMR1L, low 0
048E   0020               M         BANKSEL TMR1L
048F   3000               M         MOVLW   low 0
0490   0096               M         MOVWF   TMR1L
0491   0020               M         BANKSEL T1CON
0492   1418               M         BSF     T1CON, TMR1ON
0493   0020               M         BANKSEL PIR1
0494   1C10               M         BTFSS   PIR1, TMR1IF
0495   2???               M          GOTO $-1
0496   0020               M         BANKSEL T1CON
MPASM 5.77                        WS2813.ASM   8-13-2018  13:36:12         PAGE 34


LOC  OBJECT CODE     LINE SOURCE TEXT
  VALUE

0497   1018               M         BCF     T1CON, TMR1ON
0498   0020               M         BANKSEL PIR1
0499   1010               M         BCF     PIR1, TMR1IF
                      00357     TMR1_DELAY  0
                          M         TMR1_OFFSET 0
049A   0020               M         BANKSEL TMR1H
                          M         MOVLF   TMR1H, high 0
049B   0020               M         BANKSEL TMR1H
049C   3000               M         MOVLW   high 0
049D   0097               M         MOVWF   TMR1H
                          M         MOVLF   TMR1L, low 0
049E   0020               M         BANKSEL TMR1L
049F   3000               M         MOVLW   low 0
04A0   0096               M         MOVWF   TMR1L
04A1   0020               M         BANKSEL T1CON
04A2   1418               M         BSF     T1CON, TMR1ON
04A3   0020               M         BANKSEL PIR1
04A4   1C10               M         BTFSS   PIR1, TMR1IF
04A5   2???               M          GOTO $-1
04A6   0020               M         BANKSEL T1CON
04A7   1018               M         BCF     T1CON, TMR1ON
04A8   0020               M         BANKSEL PIR1
04A9   1010               M         BCF     PIR1, TMR1IF
                      00358     TMR1_DELAY  0
                          M         TMR1_OFFSET 0
04AA   0020               M         BANKSEL TMR1H
                          M         MOVLF   TMR1H, high 0
04AB   0020               M         BANKSEL TMR1H
04AC   3000               M         MOVLW   high 0
04AD   0097               M         MOVWF   TMR1H
                          M         MOVLF   TMR1L, low 0
04AE   0020               M         BANKSEL TMR1L
04AF   3000               M         MOVLW   low 0
04B0   0096               M         MOVWF   TMR1L
04B1   0020               M         BANKSEL T1CON
04B2   1418               M         BSF     T1CON, TMR1ON
04B3   0020               M         BANKSEL PIR1
04B4   1C10               M         BTFSS   PIR1, TMR1IF
04B5   2???               M          GOTO $-1
04B6   0020               M         BANKSEL T1CON
04B7   1018               M         BCF     T1CON, TMR1ON
04B8   0020               M         BANKSEL PIR1
04B9   1010               M         BCF     PIR1, TMR1IF
                      00359     
                      00360 ;    
                      00361 ;;RED - FIRST BAND
                      00362 ;    MSGEQ7_STROBE
                      00363 ;    READ_SETTLE
                      00364 ;    READ_ADC
                      00365 ;    MOVLW   2
                      00366 ;    CALL    RSHIFT16
                      00367 ;    CPYFF   WDATA, WCOLOR+1
                      00368 ;    
MPASM 5.77                        WS2813.ASM   8-13-2018  13:36:12         PAGE 35


LOC  OBJECT CODE     LINE SOURCE TEXT
  VALUE

                      00369 ;;GREEN - THIRD BAND
                      00370 ;    READ_SETTLE
                      00371 ;    MSGEQ7_STROBE
                      00372 ;    MSGEQ7_STROBE
                      00373 ;    READ_ADC
                      00374 ;    MOVLW   2
                      00375 ;    CALL    RSHIFT16
                      00376 ;    CPYFF   WDATA, WCOLOR
                      00377 ;    
                      00378 ;    CALL    WRITE_FRAME
                      00379 ;    CALL    DELAY                  ; finish up frame - add delay to reset LEDs 
                      00380 ;    GOTO    RENDER_LOOP
                      00381 ;    
                      00382 ;    
                      00383 ;;BLUE - FIFTH BAND
                      00384 ;    MSGEQ7_STROBE
                      00385 ;    MSGEQ7_STROBE
                      00386 ;    READ_SETTLE
                      00387 ;    READ_ADC
                      00388 ;    MOVLW   2
                      00389 ;    CALL    RSHIFT16
                      00390 ;    CPYFF   WDATA, WCOLOR+2
                      00391 ;    
                      00392 ;    
                      00393 ;    CALL    WRITE_FRAME
                      00394 ;    CALL    DELAY                  ; finish up frame - add delay to reset LEDs 
                      00395 ;    GOTO    RENDER_LOOP
                      00396 ; 
                      00397 ;WRITE_FRAME:
                      00398 ;    MOVLF   WRITE_COUNT, NUM_LEDS   ; copy NUM_LEDS to WRITE_COUNT
                      00399 ;    DECFSZ  FRAMECOUNT
                      00400 ;    GOTO    WRITE_LED
                      00401 ;    MOVLF   FRAMECOUNT, NUM_LEDS
                      00402 ;    
                      00403 ;WRITE_LED:
                      00404 ;    CALL    WS2813_WRITE           ; write out LED to strip
                      00405 ;    DECFSZ  WRITE_COUNT, F                 
                      00406 ;    GOTO    WRITE_LED              ; repeat until all LEDs have been written to
                      00407     
04BA   0008           00408     RETURN
                      00409     
                      00410 
                      00411 ;*******************************************************************************
                      00412 ;                                   DELAY
                      00413 ;*******************************************************************************
04BB                  00414 DELAY:
04BB   002?           00415     BANKSEL WS2813_RESET
                      00416     CPYFF   WS2813_RESET, WS2813_RESET_COPY
04BC   08??               M         MOVF    WS2813_RESET, W
04BD   00??               M         MOVWF   WS2813_RESET_COPY
                      00417     
04BE                  00418 OL:                                 ; outer loop (nested for loops)
                      00419     CPYFF   WS2813_RESET+1, WS2813_RESET_COPY+1
MPASM 5.77                        WS2813.ASM   8-13-2018  13:36:12         PAGE 36


LOC  OBJECT CODE     LINE SOURCE TEXT
  VALUE

04BE   08??               M         MOVF    WS2813_RESET+1, W
04BF   00??               M         MOVWF   WS2813_RESET_COPY+1
04C0   0B??           00420     DECFSZ  WS2813_RESET_COPY, F
04C1   2???           00421     GOTO    IL
04C2   2???           00422     GOTO    DONE
04C3                  00423 IL:                                 ; outer loop
04C3   0B??           00424     DECFSZ  WS2813_RESET_COPY+1, F
04C4   2???           00425     GOTO    $-1
04C5   2???           00426     GOTO    OL
04C6                  00427 DONE:
04C6   0008           00428     RETURN
                      00429     
                      00430     
                      00431     
                      00432 
                      00433 ;*******************************************************************************
                      00434 ;                                WS2813_WRITE
                      00435 ;*******************************************************************************
04C7                  00436 WS2813_WRITE:
                      00437     ;
                      00438     ;
                      00439     ;
                      00440     ; GREEN
04C7   1F80           00441     BTFSS   WCOLOR, 7
04C8   2???           00442     GOTO    $+11
                      00443     BITHIGH
Message[302]: Register in operand not in bank 0.  Ensure that bank bits are correct.
04C9   160E               M         BSF     LATC, WS2813_PIN
04CA   0000               M         NOP
04CB   0000               M         NOP
04CC   0000               M         NOP
04CD   0000               M         NOP
04CE   0000               M         NOP
04CF   0000               M         NOP
04D0   0000               M         NOP
Message[302]: Register in operand not in bank 0.  Ensure that bank bits are correct.
04D1   120E               M         BCF     LATC, WS2813_PIN
04D2   2???           00444     GOTO    $+10
                      00445     BITLOW
Message[302]: Register in operand not in bank 0.  Ensure that bank bits are correct.
04D3   160E               M         BSF     LATC, WS2813_PIN
04D4   0000               M         NOP
04D5   0000               M         NOP
Message[302]: Register in operand not in bank 0.  Ensure that bank bits are correct.
04D6   120E               M         BCF     LATC, WS2813_PIN
04D7   0000               M         NOP
04D8   0000               M         NOP
04D9   0000               M         NOP
04DA   0000               M         NOP
04DB   0000               M         NOP
                      00446     
04DC   1F00           00447     BTFSS   WCOLOR, 6
04DD   2???           00448     GOTO    $+11
MPASM 5.77                        WS2813.ASM   8-13-2018  13:36:12         PAGE 37


LOC  OBJECT CODE     LINE SOURCE TEXT
  VALUE

                      00449     BITHIGH
Message[302]: Register in operand not in bank 0.  Ensure that bank bits are correct.
04DE   160E               M         BSF     LATC, WS2813_PIN
04DF   0000               M         NOP
04E0   0000               M         NOP
04E1   0000               M         NOP
04E2   0000               M         NOP
04E3   0000               M         NOP
04E4   0000               M         NOP
04E5   0000               M         NOP
Message[302]: Register in operand not in bank 0.  Ensure that bank bits are correct.
04E6   120E               M         BCF     LATC, WS2813_PIN
04E7   2???           00450     GOTO    $+10
                      00451     BITLOW
Message[302]: Register in operand not in bank 0.  Ensure that bank bits are correct.
04E8   160E               M         BSF     LATC, WS2813_PIN
04E9   0000               M         NOP
04EA   0000               M         NOP
Message[302]: Register in operand not in bank 0.  Ensure that bank bits are correct.
04EB   120E               M         BCF     LATC, WS2813_PIN
04EC   0000               M         NOP
04ED   0000               M         NOP
04EE   0000               M         NOP
04EF   0000               M         NOP
04F0   0000               M         NOP
                      00452     
04F1   1E80           00453     BTFSS   WCOLOR, 5
04F2   2???           00454     GOTO    $+11
                      00455     BITHIGH
Message[302]: Register in operand not in bank 0.  Ensure that bank bits are correct.
04F3   160E               M         BSF     LATC, WS2813_PIN
04F4   0000               M         NOP
04F5   0000               M         NOP
04F6   0000               M         NOP
04F7   0000               M         NOP
04F8   0000               M         NOP
04F9   0000               M         NOP
04FA   0000               M         NOP
Message[302]: Register in operand not in bank 0.  Ensure that bank bits are correct.
04FB   120E               M         BCF     LATC, WS2813_PIN
04FC   2???           00456     GOTO    $+10
                      00457     BITLOW
Message[302]: Register in operand not in bank 0.  Ensure that bank bits are correct.
04FD   160E               M         BSF     LATC, WS2813_PIN
04FE   0000               M         NOP
04FF   0000               M         NOP
Message[302]: Register in operand not in bank 0.  Ensure that bank bits are correct.
0500   120E               M         BCF     LATC, WS2813_PIN
0501   0000               M         NOP
0502   0000               M         NOP
0503   0000               M         NOP
0504   0000               M         NOP
0505   0000               M         NOP
MPASM 5.77                        WS2813.ASM   8-13-2018  13:36:12         PAGE 38


LOC  OBJECT CODE     LINE SOURCE TEXT
  VALUE

                      00458     
0506   1E00           00459     BTFSS   WCOLOR, 4
0507   2???           00460     GOTO    $+11
                      00461     BITHIGH
Message[302]: Register in operand not in bank 0.  Ensure that bank bits are correct.
0508   160E               M         BSF     LATC, WS2813_PIN
0509   0000               M         NOP
050A   0000               M         NOP
050B   0000               M         NOP
050C   0000               M         NOP
050D   0000               M         NOP
050E   0000               M         NOP
050F   0000               M         NOP
Message[302]: Register in operand not in bank 0.  Ensure that bank bits are correct.
0510   120E               M         BCF     LATC, WS2813_PIN
0511   2???           00462     GOTO    $+10
                      00463     BITLOW
Message[302]: Register in operand not in bank 0.  Ensure that bank bits are correct.
0512   160E               M         BSF     LATC, WS2813_PIN
0513   0000               M         NOP
0514   0000               M         NOP
Message[302]: Register in operand not in bank 0.  Ensure that bank bits are correct.
0515   120E               M         BCF     LATC, WS2813_PIN
0516   0000               M         NOP
0517   0000               M         NOP
0518   0000               M         NOP
0519   0000               M         NOP
051A   0000               M         NOP
                      00464     
051B   1D80           00465     BTFSS   WCOLOR, 3
051C   2???           00466     GOTO    $+11
                      00467     BITHIGH
Message[302]: Register in operand not in bank 0.  Ensure that bank bits are correct.
051D   160E               M         BSF     LATC, WS2813_PIN
051E   0000               M         NOP
051F   0000               M         NOP
0520   0000               M         NOP
0521   0000               M         NOP
0522   0000               M         NOP
0523   0000               M         NOP
0524   0000               M         NOP
Message[302]: Register in operand not in bank 0.  Ensure that bank bits are correct.
0525   120E               M         BCF     LATC, WS2813_PIN
0526   2???           00468     GOTO    $+10
                      00469     BITLOW
Message[302]: Register in operand not in bank 0.  Ensure that bank bits are correct.
0527   160E               M         BSF     LATC, WS2813_PIN
0528   0000               M         NOP
0529   0000               M         NOP
Message[302]: Register in operand not in bank 0.  Ensure that bank bits are correct.
052A   120E               M         BCF     LATC, WS2813_PIN
052B   0000               M         NOP
052C   0000               M         NOP
MPASM 5.77                        WS2813.ASM   8-13-2018  13:36:12         PAGE 39


LOC  OBJECT CODE     LINE SOURCE TEXT
  VALUE

052D   0000               M         NOP
052E   0000               M         NOP
052F   0000               M         NOP
                      00470     
0530   1D00           00471     BTFSS   WCOLOR, 2
0531   2???           00472     GOTO    $+11
                      00473     BITHIGH
Message[302]: Register in operand not in bank 0.  Ensure that bank bits are correct.
0532   160E               M         BSF     LATC, WS2813_PIN
0533   0000               M         NOP
0534   0000               M         NOP
0535   0000               M         NOP
0536   0000               M         NOP
0537   0000               M         NOP
0538   0000               M         NOP
0539   0000               M         NOP
Message[302]: Register in operand not in bank 0.  Ensure that bank bits are correct.
053A   120E               M         BCF     LATC, WS2813_PIN
053B   2???           00474     GOTO    $+10
                      00475     BITLOW
Message[302]: Register in operand not in bank 0.  Ensure that bank bits are correct.
053C   160E               M         BSF     LATC, WS2813_PIN
053D   0000               M         NOP
053E   0000               M         NOP
Message[302]: Register in operand not in bank 0.  Ensure that bank bits are correct.
053F   120E               M         BCF     LATC, WS2813_PIN
0540   0000               M         NOP
0541   0000               M         NOP
0542   0000               M         NOP
0543   0000               M         NOP
0544   0000               M         NOP
                      00476     
0545   1C80           00477     BTFSS   WCOLOR, 1
0546   2???           00478     GOTO    $+11
                      00479     BITHIGH
Message[302]: Register in operand not in bank 0.  Ensure that bank bits are correct.
0547   160E               M         BSF     LATC, WS2813_PIN
0548   0000               M         NOP
0549   0000               M         NOP
054A   0000               M         NOP
054B   0000               M         NOP
054C   0000               M         NOP
054D   0000               M         NOP
054E   0000               M         NOP
Message[302]: Register in operand not in bank 0.  Ensure that bank bits are correct.
054F   120E               M         BCF     LATC, WS2813_PIN
0550   2???           00480     GOTO    $+10
                      00481     BITLOW
Message[302]: Register in operand not in bank 0.  Ensure that bank bits are correct.
0551   160E               M         BSF     LATC, WS2813_PIN
0552   0000               M         NOP
0553   0000               M         NOP
Message[302]: Register in operand not in bank 0.  Ensure that bank bits are correct.
MPASM 5.77                        WS2813.ASM   8-13-2018  13:36:12         PAGE 40


LOC  OBJECT CODE     LINE SOURCE TEXT
  VALUE

0554   120E               M         BCF     LATC, WS2813_PIN
0555   0000               M         NOP
0556   0000               M         NOP
0557   0000               M         NOP
0558   0000               M         NOP
0559   0000               M         NOP
                      00482     
055A   1C00           00483     BTFSS   WCOLOR, 0
055B   2???           00484     GOTO    $+11
                      00485     BITHIGH
Message[302]: Register in operand not in bank 0.  Ensure that bank bits are correct.
055C   160E               M         BSF     LATC, WS2813_PIN
055D   0000               M         NOP
055E   0000               M         NOP
055F   0000               M         NOP
0560   0000               M         NOP
0561   0000               M         NOP
0562   0000               M         NOP
0563   0000               M         NOP
Message[302]: Register in operand not in bank 0.  Ensure that bank bits are correct.
0564   120E               M         BCF     LATC, WS2813_PIN
0565   2???           00486     GOTO    $+10
                      00487     BITLOW
Message[302]: Register in operand not in bank 0.  Ensure that bank bits are correct.
0566   160E               M         BSF     LATC, WS2813_PIN
0567   0000               M         NOP
0568   0000               M         NOP
Message[302]: Register in operand not in bank 0.  Ensure that bank bits are correct.
0569   120E               M         BCF     LATC, WS2813_PIN
056A   0000               M         NOP
056B   0000               M         NOP
056C   0000               M         NOP
056D   0000               M         NOP
056E   0000               M         NOP
                      00488     ;
                      00489     ;
                      00490     ;
                      00491     ; RED
056F   1F80           00492     BTFSS   WCOLOR+1, 7
0570   2???           00493     GOTO    $+11
                      00494     BITHIGH
Message[302]: Register in operand not in bank 0.  Ensure that bank bits are correct.
0571   160E               M         BSF     LATC, WS2813_PIN
0572   0000               M         NOP
0573   0000               M         NOP
0574   0000               M         NOP
0575   0000               M         NOP
0576   0000               M         NOP
0577   0000               M         NOP
0578   0000               M         NOP
Message[302]: Register in operand not in bank 0.  Ensure that bank bits are correct.
0579   120E               M         BCF     LATC, WS2813_PIN
057A   2???           00495     GOTO    $+10
MPASM 5.77                        WS2813.ASM   8-13-2018  13:36:12         PAGE 41


LOC  OBJECT CODE     LINE SOURCE TEXT
  VALUE

                      00496     BITLOW
Message[302]: Register in operand not in bank 0.  Ensure that bank bits are correct.
057B   160E               M         BSF     LATC, WS2813_PIN
057C   0000               M         NOP
057D   0000               M         NOP
Message[302]: Register in operand not in bank 0.  Ensure that bank bits are correct.
057E   120E               M         BCF     LATC, WS2813_PIN
057F   0000               M         NOP
0580   0000               M         NOP
0581   0000               M         NOP
0582   0000               M         NOP
0583   0000               M         NOP
                      00497     
0584   1F00           00498     BTFSS   WCOLOR+1, 6
0585   2???           00499     GOTO    $+11
                      00500     BITHIGH
Message[302]: Register in operand not in bank 0.  Ensure that bank bits are correct.
0586   160E               M         BSF     LATC, WS2813_PIN
0587   0000               M         NOP
0588   0000               M         NOP
0589   0000               M         NOP
058A   0000               M         NOP
058B   0000               M         NOP
058C   0000               M         NOP
058D   0000               M         NOP
Message[302]: Register in operand not in bank 0.  Ensure that bank bits are correct.
058E   120E               M         BCF     LATC, WS2813_PIN
058F   2???           00501     GOTO    $+10
                      00502     BITLOW
Message[302]: Register in operand not in bank 0.  Ensure that bank bits are correct.
0590   160E               M         BSF     LATC, WS2813_PIN
0591   0000               M         NOP
0592   0000               M         NOP
Message[302]: Register in operand not in bank 0.  Ensure that bank bits are correct.
0593   120E               M         BCF     LATC, WS2813_PIN
0594   0000               M         NOP
0595   0000               M         NOP
0596   0000               M         NOP
0597   0000               M         NOP
0598   0000               M         NOP
                      00503     
0599   1E80           00504     BTFSS   WCOLOR+1, 5
059A   2???           00505     GOTO    $+11
                      00506     BITHIGH
Message[302]: Register in operand not in bank 0.  Ensure that bank bits are correct.
059B   160E               M         BSF     LATC, WS2813_PIN
059C   0000               M         NOP
059D   0000               M         NOP
059E   0000               M         NOP
059F   0000               M         NOP
05A0   0000               M         NOP
05A1   0000               M         NOP
05A2   0000               M         NOP
MPASM 5.77                        WS2813.ASM   8-13-2018  13:36:12         PAGE 42


LOC  OBJECT CODE     LINE SOURCE TEXT
  VALUE

Message[302]: Register in operand not in bank 0.  Ensure that bank bits are correct.
05A3   120E               M         BCF     LATC, WS2813_PIN
05A4   2???           00507     GOTO    $+10
                      00508     BITLOW
Message[302]: Register in operand not in bank 0.  Ensure that bank bits are correct.
05A5   160E               M         BSF     LATC, WS2813_PIN
05A6   0000               M         NOP
05A7   0000               M         NOP
Message[302]: Register in operand not in bank 0.  Ensure that bank bits are correct.
05A8   120E               M         BCF     LATC, WS2813_PIN
05A9   0000               M         NOP
05AA   0000               M         NOP
05AB   0000               M         NOP
05AC   0000               M         NOP
05AD   0000               M         NOP
                      00509     
05AE   1E00           00510     BTFSS   WCOLOR+1, 4
05AF   2???           00511     GOTO    $+11
                      00512     BITHIGH
Message[302]: Register in operand not in bank 0.  Ensure that bank bits are correct.
05B0   160E               M         BSF     LATC, WS2813_PIN
05B1   0000               M         NOP
05B2   0000               M         NOP
05B3   0000               M         NOP
05B4   0000               M         NOP
05B5   0000               M         NOP
05B6   0000               M         NOP
05B7   0000               M         NOP
Message[302]: Register in operand not in bank 0.  Ensure that bank bits are correct.
05B8   120E               M         BCF     LATC, WS2813_PIN
05B9   2???           00513     GOTO    $+10
                      00514     BITLOW
Message[302]: Register in operand not in bank 0.  Ensure that bank bits are correct.
05BA   160E               M         BSF     LATC, WS2813_PIN
05BB   0000               M         NOP
05BC   0000               M         NOP
Message[302]: Register in operand not in bank 0.  Ensure that bank bits are correct.
05BD   120E               M         BCF     LATC, WS2813_PIN
05BE   0000               M         NOP
05BF   0000               M         NOP
05C0   0000               M         NOP
05C1   0000               M         NOP
05C2   0000               M         NOP
                      00515     
05C3   1D80           00516     BTFSS   WCOLOR+1, 3
05C4   2???           00517     GOTO    $+11
                      00518     BITHIGH
Message[302]: Register in operand not in bank 0.  Ensure that bank bits are correct.
05C5   160E               M         BSF     LATC, WS2813_PIN
05C6   0000               M         NOP
05C7   0000               M         NOP
05C8   0000               M         NOP
05C9   0000               M         NOP
MPASM 5.77                        WS2813.ASM   8-13-2018  13:36:12         PAGE 43


LOC  OBJECT CODE     LINE SOURCE TEXT
  VALUE

05CA   0000               M         NOP
05CB   0000               M         NOP
05CC   0000               M         NOP
Message[302]: Register in operand not in bank 0.  Ensure that bank bits are correct.
05CD   120E               M         BCF     LATC, WS2813_PIN
05CE   2???           00519     GOTO    $+10
                      00520     BITLOW
Message[302]: Register in operand not in bank 0.  Ensure that bank bits are correct.
05CF   160E               M         BSF     LATC, WS2813_PIN
05D0   0000               M         NOP
05D1   0000               M         NOP
Message[302]: Register in operand not in bank 0.  Ensure that bank bits are correct.
05D2   120E               M         BCF     LATC, WS2813_PIN
05D3   0000               M         NOP
05D4   0000               M         NOP
05D5   0000               M         NOP
05D6   0000               M         NOP
05D7   0000               M         NOP
                      00521     
05D8   1D00           00522     BTFSS   WCOLOR+1, 2
05D9   2???           00523     GOTO    $+11
                      00524     BITHIGH
Message[302]: Register in operand not in bank 0.  Ensure that bank bits are correct.
05DA   160E               M         BSF     LATC, WS2813_PIN
05DB   0000               M         NOP
05DC   0000               M         NOP
05DD   0000               M         NOP
05DE   0000               M         NOP
05DF   0000               M         NOP
05E0   0000               M         NOP
05E1   0000               M         NOP
Message[302]: Register in operand not in bank 0.  Ensure that bank bits are correct.
05E2   120E               M         BCF     LATC, WS2813_PIN
05E3   2???           00525     GOTO    $+10
                      00526     BITLOW
Message[302]: Register in operand not in bank 0.  Ensure that bank bits are correct.
05E4   160E               M         BSF     LATC, WS2813_PIN
05E5   0000               M         NOP
05E6   0000               M         NOP
Message[302]: Register in operand not in bank 0.  Ensure that bank bits are correct.
05E7   120E               M         BCF     LATC, WS2813_PIN
05E8   0000               M         NOP
05E9   0000               M         NOP
05EA   0000               M         NOP
05EB   0000               M         NOP
05EC   0000               M         NOP
                      00527     
05ED   1C80           00528     BTFSS   WCOLOR+1, 1
05EE   2???           00529     GOTO    $+11
                      00530     BITHIGH
Message[302]: Register in operand not in bank 0.  Ensure that bank bits are correct.
05EF   160E               M         BSF     LATC, WS2813_PIN
05F0   0000               M         NOP
MPASM 5.77                        WS2813.ASM   8-13-2018  13:36:12         PAGE 44


LOC  OBJECT CODE     LINE SOURCE TEXT
  VALUE

05F1   0000               M         NOP
05F2   0000               M         NOP
05F3   0000               M         NOP
05F4   0000               M         NOP
05F5   0000               M         NOP
05F6   0000               M         NOP
Message[302]: Register in operand not in bank 0.  Ensure that bank bits are correct.
05F7   120E               M         BCF     LATC, WS2813_PIN
05F8   2???           00531     GOTO    $+10
                      00532     BITLOW
Message[302]: Register in operand not in bank 0.  Ensure that bank bits are correct.
05F9   160E               M         BSF     LATC, WS2813_PIN
05FA   0000               M         NOP
05FB   0000               M         NOP
Message[302]: Register in operand not in bank 0.  Ensure that bank bits are correct.
05FC   120E               M         BCF     LATC, WS2813_PIN
05FD   0000               M         NOP
05FE   0000               M         NOP
05FF   0000               M         NOP
0600   0000               M         NOP
0601   0000               M         NOP
                      00533     
0602   1C00           00534     BTFSS   WCOLOR+1, 0
0603   2???           00535     GOTO    $+11
                      00536     BITHIGH
Message[302]: Register in operand not in bank 0.  Ensure that bank bits are correct.
0604   160E               M         BSF     LATC, WS2813_PIN
0605   0000               M         NOP
0606   0000               M         NOP
0607   0000               M         NOP
0608   0000               M         NOP
0609   0000               M         NOP
060A   0000               M         NOP
060B   0000               M         NOP
Message[302]: Register in operand not in bank 0.  Ensure that bank bits are correct.
060C   120E               M         BCF     LATC, WS2813_PIN
060D   2???           00537     GOTO    $+10
                      00538     BITLOW
Message[302]: Register in operand not in bank 0.  Ensure that bank bits are correct.
060E   160E               M         BSF     LATC, WS2813_PIN
060F   0000               M         NOP
0610   0000               M         NOP
Message[302]: Register in operand not in bank 0.  Ensure that bank bits are correct.
0611   120E               M         BCF     LATC, WS2813_PIN
0612   0000               M         NOP
0613   0000               M         NOP
0614   0000               M         NOP
0615   0000               M         NOP
0616   0000               M         NOP
                      00539     ;
                      00540     ;
                      00541     ;
                      00542     ; BLUE
MPASM 5.77                        WS2813.ASM   8-13-2018  13:36:12         PAGE 45


LOC  OBJECT CODE     LINE SOURCE TEXT
  VALUE

0617   1F80           00543     BTFSS   WCOLOR+2, 7
0618   2???           00544     GOTO    $+11
                      00545     BITHIGH
Message[302]: Register in operand not in bank 0.  Ensure that bank bits are correct.
0619   160E               M         BSF     LATC, WS2813_PIN
061A   0000               M         NOP
061B   0000               M         NOP
061C   0000               M         NOP
061D   0000               M         NOP
061E   0000               M         NOP
061F   0000               M         NOP
0620   0000               M         NOP
Message[302]: Register in operand not in bank 0.  Ensure that bank bits are correct.
0621   120E               M         BCF     LATC, WS2813_PIN
0622   2???           00546     GOTO    $+10
                      00547     BITLOW
Message[302]: Register in operand not in bank 0.  Ensure that bank bits are correct.
0623   160E               M         BSF     LATC, WS2813_PIN
0624   0000               M         NOP
0625   0000               M         NOP
Message[302]: Register in operand not in bank 0.  Ensure that bank bits are correct.
0626   120E               M         BCF     LATC, WS2813_PIN
0627   0000               M         NOP
0628   0000               M         NOP
0629   0000               M         NOP
062A   0000               M         NOP
062B   0000               M         NOP
                      00548     
062C   1F00           00549     BTFSS   WCOLOR+2, 6
062D   2???           00550     GOTO    $+11
                      00551     BITHIGH
Message[302]: Register in operand not in bank 0.  Ensure that bank bits are correct.
062E   160E               M         BSF     LATC, WS2813_PIN
062F   0000               M         NOP
0630   0000               M         NOP
0631   0000               M         NOP
0632   0000               M         NOP
0633   0000               M         NOP
0634   0000               M         NOP
0635   0000               M         NOP
Message[302]: Register in operand not in bank 0.  Ensure that bank bits are correct.
0636   120E               M         BCF     LATC, WS2813_PIN
0637   2???           00552     GOTO    $+10
                      00553     BITLOW
Message[302]: Register in operand not in bank 0.  Ensure that bank bits are correct.
0638   160E               M         BSF     LATC, WS2813_PIN
0639   0000               M         NOP
063A   0000               M         NOP
Message[302]: Register in operand not in bank 0.  Ensure that bank bits are correct.
063B   120E               M         BCF     LATC, WS2813_PIN
063C   0000               M         NOP
063D   0000               M         NOP
063E   0000               M         NOP
MPASM 5.77                        WS2813.ASM   8-13-2018  13:36:12         PAGE 46


LOC  OBJECT CODE     LINE SOURCE TEXT
  VALUE

063F   0000               M         NOP
0640   0000               M         NOP
                      00554     
0641   1E80           00555     BTFSS   WCOLOR+2, 5
0642   2???           00556     GOTO    $+11
                      00557     BITHIGH
Message[302]: Register in operand not in bank 0.  Ensure that bank bits are correct.
0643   160E               M         BSF     LATC, WS2813_PIN
0644   0000               M         NOP
0645   0000               M         NOP
0646   0000               M         NOP
0647   0000               M         NOP
0648   0000               M         NOP
0649   0000               M         NOP
064A   0000               M         NOP
Message[302]: Register in operand not in bank 0.  Ensure that bank bits are correct.
064B   120E               M         BCF     LATC, WS2813_PIN
064C   2???           00558     GOTO    $+10
                      00559     BITLOW
Message[302]: Register in operand not in bank 0.  Ensure that bank bits are correct.
064D   160E               M         BSF     LATC, WS2813_PIN
064E   0000               M         NOP
064F   0000               M         NOP
Message[302]: Register in operand not in bank 0.  Ensure that bank bits are correct.
0650   120E               M         BCF     LATC, WS2813_PIN
0651   0000               M         NOP
0652   0000               M         NOP
0653   0000               M         NOP
0654   0000               M         NOP
0655   0000               M         NOP
                      00560     
0656   1E00           00561     BTFSS   WCOLOR+2, 4
0657   2???           00562     GOTO    $+11
                      00563     BITHIGH
Message[302]: Register in operand not in bank 0.  Ensure that bank bits are correct.
0658   160E               M         BSF     LATC, WS2813_PIN
0659   0000               M         NOP
065A   0000               M         NOP
065B   0000               M         NOP
065C   0000               M         NOP
065D   0000               M         NOP
065E   0000               M         NOP
065F   0000               M         NOP
Message[302]: Register in operand not in bank 0.  Ensure that bank bits are correct.
0660   120E               M         BCF     LATC, WS2813_PIN
0661   2???           00564     GOTO    $+10
                      00565     BITLOW
Message[302]: Register in operand not in bank 0.  Ensure that bank bits are correct.
0662   160E               M         BSF     LATC, WS2813_PIN
0663   0000               M         NOP
0664   0000               M         NOP
Message[302]: Register in operand not in bank 0.  Ensure that bank bits are correct.
0665   120E               M         BCF     LATC, WS2813_PIN
MPASM 5.77                        WS2813.ASM   8-13-2018  13:36:12         PAGE 47


LOC  OBJECT CODE     LINE SOURCE TEXT
  VALUE

0666   0000               M         NOP
0667   0000               M         NOP
0668   0000               M         NOP
0669   0000               M         NOP
066A   0000               M         NOP
                      00566     
066B   1D80           00567     BTFSS   WCOLOR+2, 3
066C   2???           00568     GOTO    $+11
                      00569     BITHIGH
Message[302]: Register in operand not in bank 0.  Ensure that bank bits are correct.
066D   160E               M         BSF     LATC, WS2813_PIN
066E   0000               M         NOP
066F   0000               M         NOP
0670   0000               M         NOP
0671   0000               M         NOP
0672   0000               M         NOP
0673   0000               M         NOP
0674   0000               M         NOP
Message[302]: Register in operand not in bank 0.  Ensure that bank bits are correct.
0675   120E               M         BCF     LATC, WS2813_PIN
0676   2???           00570     GOTO    $+10
                      00571     BITLOW
Message[302]: Register in operand not in bank 0.  Ensure that bank bits are correct.
0677   160E               M         BSF     LATC, WS2813_PIN
0678   0000               M         NOP
0679   0000               M         NOP
Message[302]: Register in operand not in bank 0.  Ensure that bank bits are correct.
067A   120E               M         BCF     LATC, WS2813_PIN
067B   0000               M         NOP
067C   0000               M         NOP
067D   0000               M         NOP
067E   0000               M         NOP
067F   0000               M         NOP
                      00572     
0680   1D00           00573     BTFSS   WCOLOR+2, 2
0681   2???           00574     GOTO    $+11
                      00575     BITHIGH
Message[302]: Register in operand not in bank 0.  Ensure that bank bits are correct.
0682   160E               M         BSF     LATC, WS2813_PIN
0683   0000               M         NOP
0684   0000               M         NOP
0685   0000               M         NOP
0686   0000               M         NOP
0687   0000               M         NOP
0688   0000               M         NOP
0689   0000               M         NOP
Message[302]: Register in operand not in bank 0.  Ensure that bank bits are correct.
068A   120E               M         BCF     LATC, WS2813_PIN
068B   2???           00576     GOTO    $+10
                      00577     BITLOW
Message[302]: Register in operand not in bank 0.  Ensure that bank bits are correct.
068C   160E               M         BSF     LATC, WS2813_PIN
068D   0000               M         NOP
MPASM 5.77                        WS2813.ASM   8-13-2018  13:36:12         PAGE 48


LOC  OBJECT CODE     LINE SOURCE TEXT
  VALUE

068E   0000               M         NOP
Message[302]: Register in operand not in bank 0.  Ensure that bank bits are correct.
068F   120E               M         BCF     LATC, WS2813_PIN
0690   0000               M         NOP
0691   0000               M         NOP
0692   0000               M         NOP
0693   0000               M         NOP
0694   0000               M         NOP
                      00578     
0695   1C80           00579     BTFSS   WCOLOR+2, 1
0696   2???           00580     GOTO    $+11
                      00581     BITHIGH
Message[302]: Register in operand not in bank 0.  Ensure that bank bits are correct.
0697   160E               M         BSF     LATC, WS2813_PIN
0698   0000               M         NOP
0699   0000               M         NOP
069A   0000               M         NOP
069B   0000               M         NOP
069C   0000               M         NOP
069D   0000               M         NOP
069E   0000               M         NOP
Message[302]: Register in operand not in bank 0.  Ensure that bank bits are correct.
069F   120E               M         BCF     LATC, WS2813_PIN
06A0   2???           00582     GOTO    $+10
                      00583     BITLOW
Message[302]: Register in operand not in bank 0.  Ensure that bank bits are correct.
06A1   160E               M         BSF     LATC, WS2813_PIN
06A2   0000               M         NOP
06A3   0000               M         NOP
Message[302]: Register in operand not in bank 0.  Ensure that bank bits are correct.
06A4   120E               M         BCF     LATC, WS2813_PIN
06A5   0000               M         NOP
06A6   0000               M         NOP
06A7   0000               M         NOP
06A8   0000               M         NOP
06A9   0000               M         NOP
                      00584     
06AA   1C00           00585     BTFSS   WCOLOR+2, 0
06AB   2???           00586     GOTO    $+11
                      00587     BITHIGH
Message[302]: Register in operand not in bank 0.  Ensure that bank bits are correct.
06AC   160E               M         BSF     LATC, WS2813_PIN
06AD   0000               M         NOP
06AE   0000               M         NOP
06AF   0000               M         NOP
06B0   0000               M         NOP
06B1   0000               M         NOP
06B2   0000               M         NOP
06B3   0000               M         NOP
Message[302]: Register in operand not in bank 0.  Ensure that bank bits are correct.
06B4   120E               M         BCF     LATC, WS2813_PIN
06B5   2???           00588     GOTO    $+10
Message[302]: Register in operand not in bank 0.  Ensure that bank bits are correct.
MPASM 5.77                        WS2813.ASM   8-13-2018  13:36:12         PAGE 49


LOC  OBJECT CODE     LINE SOURCE TEXT
  VALUE

06B6   160E           00589     BSF LATC, WS2813_PIN
06B7   0000           00590     NOP
06B8   0000           00591     NOP
Message[302]: Register in operand not in bank 0.  Ensure that bank bits are correct.
06B9   120E           00592     BCF LATC, WS2813_PIN
06BA   0000           00593     NOP
06BB   0000           00594     NOP
                      00595     ;NOP
                      00596     ;NOP
                      00597     ;NOP
06BC   0008           00598     RETURN
                      00599 
                      00600     
                      00601     
                      00602     
                      00603     
06BD                  00604 RSHIFT16:
  0000                00605     LOCAL   RSLOOP
06BD   1003           00606     BCF     STATUS, C
06BE   1103           00607     BCF     STATUS, Z
06BF   0020           00608     BANKSEL WREG
06C0   1809           00609     BTFSC   WREG, 0                     ; check for odd number - will be ignored
06C1   1503           00610      BSF    STATUS, Z
                      00611 
06C2                  00612 RSLOOP:
06C2   002?           00613     BANKSEL WDATA
06C3   1800           00614     BTFSC   WDATA+1, 0
06C4   1403           00615      BSF    STATUS, C
Message[305]: Using default destination of 1 (file).
06C5   36??           00616     LSRF    WDATA
Message[305]: Using default destination of 1 (file).
06C6   36??           00617     LSRF    WDATA+1
06C7   1803           00618     BTFSC   STATUS, C
06C8   1780           00619      BSF    WDATA, 7
06C9   1003           00620     BCF     STATUS, C
Message[305]: Using default destination of 1 (file).
06CA   0B89           00621     DECFSZ  WREG
06CB   2???           00622      GOTO   RSLOOP
                      00623     
06CC   0008           00624     RETURN    
                      00625     
                      00626     
                      00627     
                      00628     
                      00629     
3FFC 3FFF 3F9F        00630     END 
MPASM 5.77                        WS2813.ASM   8-13-2018  13:36:12         PAGE 50


SYMBOL TABLE
  LABEL                             VALUE 

ABDEN                             00000000
ABDOVF                            00000007
ACC0                              00000000
ACC1                              00000001
ACC10                             00000002
ACC11                             00000003
ACC12                             00000004
ACC13                             00000005
ACC14                             00000006
ACC15                             00000007
ACC16                             00000000
ACC17                             00000001
ACC18                             00000002
ACC19                             00000003
ACC2                              00000002
ACC20                             00000004
ACC21                             00000005
ACC22                             00000006
ACC23                             00000007
ACC24                             00000000
ACC25                             00000001
ACC26                             00000002
ACC27                             00000003
ACC28                             00000004
ACC29                             00000005
ACC3                              00000003
ACC30                             00000006
ACC31                             00000007
ACC32                             00000000
ACC33                             00000001
ACC34                             00000002
ACC4                              00000004
ACC5                              00000005
ACC6                              00000006
ACC7                              00000007
ACC8                              00000000
ACC9                              00000001
ACCM                              00000004
ACCS                              00000001
ACKDT                             00000005
ACKEN                             00000004
ACKSTAT                           00000006
ACKTIM                            00000007
ACQ_DELAY                         
ADCON0                            0000009D
ADCON1                            0000009E
ADCON2                            0000009F
ADCS0                             00000004
ADCS1                             00000005
ADCS2                             00000006
ADC_ANSEL                         ANSA2
ADD0                              00000000
ADD1                              00000001
MPASM 5.77                        WS2813.ASM   8-13-2018  13:36:12         PAGE 51


SYMBOL TABLE
  LABEL                             VALUE 

ADD2                              00000002
ADD3                              00000003
ADD4                              00000004
ADD5                              00000005
ADD6                              00000006
ADD7                              00000007
ADDEN                             00000003
ADFM                              00000007
ADFVR0                            00000000
ADFVR1                            00000001
ADGO                              00000001
ADIE                              00000006
ADIF                              00000006
ADON                              00000000
ADPREF0                           00000000
ADPREF1                           00000001
ADRES                             0000009B
ADRESH                            0000009C
ADRESL                            0000009B
AHEN                              00000001
ANSA0                             00000000
ANSA1                             00000001
ANSA2                             00000002
ANSA4                             00000004
ANSC0                             00000000
ANSC1                             00000001
ANSC2                             00000002
ANSC3                             00000003
ANSELA                            0000018C
ANSELC                            0000018E
APMOD                             00000001
AS                                00000000
AT1ACCS                           00000001
AT1APMOD                          00000001
AT1CAP1P                          00000003
AT1CAP2P                          00000003
AT1CAP3P                          00000003
AT1CC1                            0000088F
AT1CC10                           00000000
AT1CC11                           00000001
AT1CC12                           00000002
AT1CC13                           00000003
AT1CC14                           00000004
AT1CC15                           00000005
AT1CC16                           00000006
AT1CC17                           00000007
AT1CC18                           00000000
AT1CC19                           00000001
AT1CC1EN                          00000007
AT1CC1H                           00000890
AT1CC1IE                          00000000
AT1CC1IF                          00000000
AT1CC1L                           0000088F
MPASM 5.77                        WS2813.ASM   8-13-2018  13:36:12         PAGE 52


SYMBOL TABLE
  LABEL                             VALUE 

AT1CC1MODE                        00000000
AT1CC1POL                         00000004
AT1CC2                            00000893
AT1CC20                           00000000
AT1CC21                           00000001
AT1CC22                           00000002
AT1CC23                           00000003
AT1CC24                           00000004
AT1CC25                           00000005
AT1CC26                           00000006
AT1CC27                           00000007
AT1CC28                           00000000
AT1CC29                           00000001
AT1CC2EN                          00000007
AT1CC2H                           00000894
AT1CC2IE                          00000001
AT1CC2IF                          00000001
AT1CC2L                           00000893
AT1CC2MODE                        00000000
AT1CC2POL                         00000004
AT1CC3                            00000897
AT1CC30                           00000000
AT1CC31                           00000001
AT1CC32                           00000002
AT1CC33                           00000003
AT1CC34                           00000004
AT1CC35                           00000005
AT1CC36                           00000006
AT1CC37                           00000007
AT1CC38                           00000000
AT1CC39                           00000001
AT1CC3EN                          00000007
AT1CC3H                           00000898
AT1CC3IE                          00000002
AT1CC3IF                          00000002
AT1CC3L                           00000897
AT1CC3MODE                        00000000
AT1CC3POL                         00000004
AT1CCON1                          00000891
AT1CCON2                          00000895
AT1CCON3                          00000899
AT1CLK                            0000088C
AT1CON0                           00000814
AT1CON1                           00000815
AT1CP1S0                          00000000
AT1CP1S1                          00000001
AT1CP1S2                          00000002
AT1CP2S0                          00000000
AT1CP2S1                          00000001
AT1CP2S2                          00000002
AT1CP3S0                          00000000
AT1CP3S1                          00000001
AT1CP3S2                          00000002
MPASM 5.77                        WS2813.ASM   8-13-2018  13:36:12         PAGE 53


SYMBOL TABLE
  LABEL                             VALUE 

AT1CS                             00000000
AT1CS0                            00000000
AT1CSEL1                          0000088E
AT1CSEL2                          00000892
AT1CSEL3                          00000896
AT1EN                             00000007
AT1ERR                            0000081C
AT1ERR0                           00000000
AT1ERR1                           00000001
AT1ERR10                          00000002
AT1ERR11                          00000003
AT1ERR12                          00000004
AT1ERR13                          00000005
AT1ERR14                          00000006
AT1ERR15                          00000007
AT1ERR2                           00000002
AT1ERR3                           00000003
AT1ERR4                           00000004
AT1ERR5                           00000005
AT1ERR6                           00000006
AT1ERR7                           00000007
AT1ERR8                           00000000
AT1ERR9                           00000001
AT1ERRH                           0000081D
AT1ERRL                           0000081C
AT1IE                             00000002
AT1IE0                            00000817
AT1IE1                            00000819
AT1IF                             00000002
AT1IR0                            00000816
AT1IR1                            00000818
AT1MISS                           0000080E
AT1MISS0                          00000000
AT1MISS1                          00000001
AT1MISS10                         00000002
AT1MISS11                         00000003
AT1MISS12                         00000004
AT1MISS13                         00000005
AT1MISS14                         00000006
AT1MISS15                         00000007
AT1MISS2                          00000002
AT1MISS3                          00000003
AT1MISS4                          00000004
AT1MISS5                          00000005
AT1MISS6                          00000006
AT1MISS7                          00000007
AT1MISS8                          00000000
AT1MISS9                          00000001
AT1MISSH                          0000080F
AT1MISSIE                         00000001
AT1MISSIF                         00000001
AT1MISSL                          0000080E
AT1MODE                           00000000
MPASM 5.77                        WS2813.ASM   8-13-2018  13:36:12         PAGE 54


SYMBOL TABLE
  LABEL                             VALUE 

AT1MPP                            00000002
AT1PER                            00000810
AT1PER0                           00000000
AT1PER1                           00000001
AT1PER10                          00000002
AT1PER11                          00000003
AT1PER12                          00000004
AT1PER13                          00000005
AT1PER14                          00000006
AT1PER2                           00000002
AT1PER3                           00000003
AT1PER4                           00000004
AT1PER5                           00000005
AT1PER6                           00000006
AT1PER7                           00000007
AT1PER8                           00000000
AT1PER9                           00000001
AT1PERH                           00000811
AT1PERIE                          00000000
AT1PERIF                          00000000
AT1PERL                           00000810
AT1PHP                            00000006
AT1PHS                            00000812
AT1PHS0                           00000000
AT1PHS1                           00000001
AT1PHS2                           00000002
AT1PHS3                           00000003
AT1PHS4                           00000004
AT1PHS5                           00000005
AT1PHS6                           00000006
AT1PHS7                           00000007
AT1PHS8                           00000000
AT1PHS9                           00000001
AT1PHSH                           00000813
AT1PHSIE                          00000002
AT1PHSIF                          00000002
AT1PHSL                           00000812
AT1POL                            00000003
AT1POV                            00000007
AT1PREC                           00000006
AT1PRP                            00000004
AT1PS0                            00000004
AT1PS1                            00000005
AT1RES                            0000080C
AT1RES0                           00000000
AT1RES1                           00000001
AT1RES2                           00000002
AT1RES3                           00000003
AT1RES4                           00000004
AT1RES5                           00000005
AT1RES6                           00000006
AT1RES7                           00000007
AT1RES8                           00000000
MPASM 5.77                        WS2813.ASM   8-13-2018  13:36:12         PAGE 55


SYMBOL TABLE
  LABEL                             VALUE 

AT1RES9                           00000001
AT1RESH                           0000080D
AT1RESL                           0000080C
AT1SIG                            0000088D
AT1SSEL0                          00000000
AT1SSEL1                          00000001
AT1SSEL2                          00000002
AT1STPT                           0000081A
AT1STPT0                          00000000
AT1STPT1                          00000001
AT1STPT10                         00000002
AT1STPT11                         00000003
AT1STPT12                         00000004
AT1STPT13                         00000005
AT1STPT14                         00000006
AT1STPT2                          00000002
AT1STPT3                          00000003
AT1STPT4                          00000004
AT1STPT5                          00000005
AT1STPT6                          00000006
AT1STPT7                          00000007
AT1STPT8                          00000000
AT1STPT9                          00000001
AT1STPTH                          0000081B
AT1STPTL                          0000081A
AT1VALID                          00000000
ATCC1PPS                          00000E1F
ATCC1PPS0                         00000000
ATCC1PPS1                         00000001
ATCC1PPS2                         00000002
ATCC1PPS3                         00000003
ATCC1PPS4                         00000004
ATCC2PPS                          00000E23
ATCC2PPS0                         00000000
ATCC2PPS1                         00000001
ATCC2PPS2                         00000002
ATCC2PPS3                         00000003
ATCC2PPS4                         00000004
ATCC3PPS                          00000E2E
ATCC3PPS0                         00000000
ATCC3PPS1                         00000001
ATCC3PPS2                         00000002
ATCC3PPS3                         00000003
ATCC3PPS4                         00000004
ATINPPS                           00000E16
ATINPPS0                          00000000
ATINPPS1                          00000001
ATINPPS2                          00000002
ATINPPS3                          00000003
ATINPPS4                          00000004
BAUD1CON                          0000019F
BAUDCON                           0000019F
BAUDCON1                          0000019F
MPASM 5.77                        WS2813.ASM   8-13-2018  13:36:12         PAGE 56


SYMBOL TABLE
  LABEL                             VALUE 

BAUDCTL                           0000019F
BAUDCTL1                          0000019F
BCL1IE                            00000003
BCL1IF                            00000003
BCOUNT                            00000120
BCZ                               
BF                                00000000
BITHIGH                           
BITLOW                            
BLUE_SPECTRUM_CH                  5
BOEN                              00000004
BORCON                            00000116
BORFS                             00000006
BORRDY                            00000000
BRG16                             00000003
BRGH                              00000002
BSR                               00000008
BSR0                              00000000
BSR1                              00000001
BSR2                              00000002
BSR3                              00000003
BSR4                              00000004
BSR_SHAD                          00000FE6
BUF0                              00000000
BUF1                              00000001
BUF2                              00000002
BUF3                              00000003
BUF4                              00000004
BUF5                              00000005
BUF6                              00000006
BUF7                              00000007
BUSY_CRCCON0                      00000005
BUSY_PID1CON                      00000006
BUSY_SCANCON0                     00000005
C                                 00000000
C1AS                              00000001
C1HYS                             00000001
C1IE                              00000005
C1IF                              00000005
C1INTN                            00000006
C1INTP                            00000007
C1NCH0                            00000000
C1NCH1                            00000001
C1NCH2                            00000002
C1ON                              00000007
C1OUT                             00000006
C1PCH0                            00000004
C1PCH1                            00000005
C1POL                             00000004
C1SP                              00000002
C1SYNC                            00000000
C2AS                              00000002
C2HYS                             00000001
MPASM 5.77                        WS2813.ASM   8-13-2018  13:36:12         PAGE 57


SYMBOL TABLE
  LABEL                             VALUE 

C2IE                              00000006
C2IF                              00000006
C2INTN                            00000006
C2INTP                            00000007
C2NCH0                            00000000
C2NCH1                            00000001
C2NCH2                            00000002
C2ON                              00000007
C2OUT                             00000006
C2PCH0                            00000004
C2PCH1                            00000005
C2POL                             00000004
C2SP                              00000002
C2SYNC                            00000000
CAP1P                             00000003
CAP2P                             00000003
CAP3P                             00000003
CC10                              00000000
CC11                              00000001
CC12                              00000002
CC13                              00000003
CC14                              00000004
CC15                              00000005
CC16                              00000006
CC17                              00000007
CC18                              00000000
CC19                              00000001
CC1EN                             00000007
CC1MODE                           00000000
CC1POL                            00000004
CC20                              00000000
CC21                              00000001
CC22                              00000002
CC24                              00000004
CC26                              00000006
CC27                              00000007
CC28                              00000000
CC29                              00000001
CC2EN                             00000007
CC2MODE                           00000000
CC2POL                            00000004
CC30                              00000000
CC31                              00000001
CC32                              00000002
CC33                              00000003
CC34                              00000004
CC35                              00000005
CC36                              00000006
CC37                              00000007
CC38                              00000000
CC39                              00000001
CC3EN                             00000007
CC3MODE                           00000000
MPASM 5.77                        WS2813.ASM   8-13-2018  13:36:12         PAGE 58


SYMBOL TABLE
  LABEL                             VALUE 

CC3POL                            00000004
CCP1CAP                           00000294
CCP1CON                           00000293
CCP1CTS0                          00000000
CCP1CTS1                          00000001
CCP1CTS2                          00000002
CCP1EN                            00000007
CCP1FMT                           00000004
CCP1IE                            00000002
CCP1IF                            00000002
CCP1MODE0                         00000000
CCP1MODE1                         00000001
CCP1MODE2                         00000002
CCP1MODE3                         00000003
CCP1OUT                           00000005
CCP1PPS                           00000E14
CCP1PPS0                          00000000
CCP1PPS1                          00000001
CCP1PPS2                          00000002
CCP1PPS3                          00000003
CCP1PPS4                          00000004
CCP1TSEL0                         00000000
CCP1TSEL1                         00000001
CCP2CAP                           0000029B
CCP2CON                           0000029A
CCP2CTS0                          00000000
CCP2CTS1                          00000001
CCP2CTS2                          00000002
CCP2EN                            00000007
CCP2FMT                           00000004
CCP2IE                            00000000
CCP2IF                            00000000
CCP2MODE0                         00000000
CCP2MODE1                         00000001
CCP2MODE2                         00000002
CCP2MODE3                         00000003
CCP2OUT                           00000005
CCP2PPS                           00000E15
CCP2PPS0                          00000000
CCP2PPS1                          00000001
CCP2PPS2                          00000002
CCP2PPS3                          00000003
CCP2PPS4                          00000004
CCP2TSEL0                         00000002
CCP2TSEL1                         00000003
CCPR1                             00000291
CCPR1H                            00000292
CCPR1L                            00000291
CCPR2                             00000298
CCPR2H                            00000299
CCPR2L                            00000298
CCPTMRS                           0000029E
CCW5                              00000005
MPASM 5.77                        WS2813.ASM   8-13-2018  13:36:12         PAGE 59


SYMBOL TABLE
  LABEL                             VALUE 

CDAFVR0                           00000002
CDAFVR1                           00000003
CFGS                              00000006
CHS0                              00000002
CHS1                              00000003
CHS2                              00000004
CHS3                              00000005
CHS4                              00000006
CKE                               00000006
CKP                               00000004
CKPOL                             00000006
CKPPS                             00000E25
CKPPS0                            00000000
CKPPS1                            00000001
CKPPS2                            00000002
CKPPS3                            00000003
CKPPS4                            00000004
CKPS0                             00000004
CKPS1                             00000005
CKPS2                             00000006
CKSYNC                            00000005
CLC1CON                           00000F10
CLC1GLS0                          00000F16
CLC1GLS1                          00000F17
CLC1GLS2                          00000F18
CLC1GLS3                          00000F19
CLC1IE                            00000000
CLC1IF                            00000000
CLC1POL                           00000F11
CLC1SEL0                          00000F12
CLC1SEL1                          00000F13
CLC1SEL2                          00000F14
CLC1SEL3                          00000F15
CLC2CON                           00000F1A
CLC2GLS0                          00000F20
CLC2GLS1                          00000F21
CLC2GLS2                          00000F22
CLC2GLS3                          00000F23
CLC2IE                            00000001
CLC2IF                            00000001
CLC2POL                           00000F1B
CLC2SEL0                          00000F1C
CLC2SEL1                          00000F1D
CLC2SEL2                          00000F1E
CLC2SEL3                          00000F1F
CLC3CON                           00000F24
CLC3GLS0                          00000F2A
CLC3GLS1                          00000F2B
CLC3GLS2                          00000F2C
CLC3GLS3                          00000F2D
CLC3IE                            00000002
CLC3IF                            00000002
CLC3POL                           00000F25
MPASM 5.77                        WS2813.ASM   8-13-2018  13:36:12         PAGE 60


SYMBOL TABLE
  LABEL                             VALUE 

CLC3SEL0                          00000F26
CLC3SEL1                          00000F27
CLC3SEL2                          00000F28
CLC3SEL3                          00000F29
CLC4CON                           00000F2E
CLC4GLS0                          00000F34
CLC4GLS1                          00000F35
CLC4GLS2                          00000F36
CLC4GLS3                          00000F37
CLC4IE                            00000003
CLC4IF                            00000003
CLC4POL                           00000F2F
CLC4SEL0                          00000F30
CLC4SEL1                          00000F31
CLC4SEL2                          00000F32
CLC4SEL3                          00000F33
CLCDATA                           00000F0F
CLCIN0PPS                         00000E28
CLCIN0PPS0                        00000000
CLCIN0PPS1                        00000001
CLCIN0PPS2                        00000002
CLCIN0PPS3                        00000003
CLCIN0PPS4                        00000004
CLCIN1PPS                         00000E29
CLCIN1PPS0                        00000000
CLCIN1PPS1                        00000001
CLCIN1PPS2                        00000002
CLCIN1PPS3                        00000003
CLCIN1PPS4                        00000004
CLCIN2PPS                         00000E2A
CLCIN2PPS0                        00000000
CLCIN2PPS1                        00000001
CLCIN2PPS2                        00000002
CLCIN2PPS3                        00000003
CLCIN2PPS4                        00000004
CLCIN3PPS                         00000E2B
CLCIN3PPS0                        00000000
CLCIN3PPS1                        00000001
CLCIN3PPS2                        00000002
CLCIN3PPS3                        00000003
CLCIN3PPS4                        00000004
CM1CON0                           00000111
CM1CON1                           00000112
CM2CON0                           00000113
CM2CON1                           00000114
CMOUT                             00000115
CP1S0                             00000000
CP1S1                             00000001
CP1S2                             00000002
CP2S0                             00000000
CP2S1                             00000001
CP2S2                             00000002
CP3S0                             00000000
MPASM 5.77                        WS2813.ASM   8-13-2018  13:36:12         PAGE 61


SYMBOL TABLE
  LABEL                             VALUE 

CP3S1                             00000001
CP3S2                             00000002
CPOL                              00000002
CPRUP                             00000007
CPWUP                             00000006
CPYFF                             
CRCACC                            00000793
CRCACC0                           00000000
CRCACC1                           00000001
CRCACC10                          00000002
CRCACC11                          00000003
CRCACC12                          00000004
CRCACC13                          00000005
CRCACC14                          00000006
CRCACC15                          00000007
CRCACC2                           00000002
CRCACC3                           00000003
CRCACC4                           00000004
CRCACC5                           00000005
CRCACC6                           00000006
CRCACC7                           00000007
CRCACC8                           00000000
CRCACC9                           00000001
CRCACCH                           00000794
CRCACCL                           00000793
CRCACCM                           00000004
CRCBUSY                           00000005
CRCCON0                           00000799
CRCCON1                           0000079A
CRCDAT                            00000791
CRCDAT0                           00000000
CRCDAT1                           00000001
CRCDAT10                          00000002
CRCDAT11                          00000003
CRCDAT12                          00000004
CRCDAT13                          00000005
CRCDAT14                          00000006
CRCDAT15                          00000007
CRCDAT2                           00000002
CRCDAT3                           00000003
CRCDAT4                           00000004
CRCDAT5                           00000005
CRCDAT6                           00000006
CRCDAT8                           00000000
CRCDAT9                           00000001
CRCDATH                           00000792
CRCDATL                           00000791
CRCDLEN0                          00000004
CRCDLEN1                          00000005
CRCDLEN2                          00000006
CRCDLEN3                          00000007
CRCEN                             00000007
CRCFULL                           00000000
MPASM 5.77                        WS2813.ASM   8-13-2018  13:36:12         PAGE 62


SYMBOL TABLE
  LABEL                             VALUE 

CRCGO                             00000006
CRCIE                             00000006
CRCIF                             00000006
CRCPLEN0                          00000000
CRCPLEN1                          00000001
CRCPLEN2                          00000002
CRCPLEN3                          00000003
CRCSHIFT                          00000795
CRCSHIFT0                         00000000
CRCSHIFT1                         00000001
CRCSHIFT10                        00000002
CRCSHIFT11                        00000003
CRCSHIFT12                        00000004
CRCSHIFT13                        00000005
CRCSHIFT14                        00000006
CRCSHIFT15                        00000007
CRCSHIFT2                         00000002
CRCSHIFT3                         00000003
CRCSHIFT4                         00000004
CRCSHIFT5                         00000005
CRCSHIFT6                         00000006
CRCSHIFT7                         00000007
CRCSHIFT8                         00000000
CRCSHIFT9                         00000001
CRCSHIFTH                         00000796
CRCSHIFTL                         00000795
CRCSHIFTM                         00000001
CRCXOR                            00000797
CRCXOR1                           00000001
CRCXOR10                          00000002
CRCXOR11                          00000003
CRCXOR12                          00000004
CRCXOR13                          00000005
CRCXOR14                          00000006
CRCXOR15                          00000007
CRCXOR2                           00000002
CRCXOR3                           00000003
CRCXOR4                           00000004
CRCXOR5                           00000005
CRCXOR6                           00000006
CRCXOR7                           00000007
CRCXOR8                           00000000
CRCXOR9                           00000001
CRCXORH                           00000798
CRCXORL                           00000797
CRDCDAT7                          00000007
CREN                              00000004
CS                                00000000
CS0                               00000000
CS1                               00000001
CS2                               00000002
CS3                               00000003
CSEL0                             00000000
MPASM 5.77                        WS2813.ASM   8-13-2018  13:36:12         PAGE 63


SYMBOL TABLE
  LABEL                             VALUE 

CSEL1                             00000001
CSEL2                             00000002
CSRC                              00000007
CTS0                              00000000
CTS1                              00000001
CTS2                              00000002
CWG1AS0                           00000693
CWG1AS1                           00000694
CWG1C1AS                          00000001
CWG1C2AS                          00000002
CWG1CLKCON                        00000699
CWG1CON0                          00000696
CWG1CON1                          00000697
CWG1CS                            00000000
CWG1DBF                           00000692
CWG1DBF0                          00000000
CWG1DBF1                          00000001
CWG1DBF2                          00000002
CWG1DBF3                          00000003
CWG1DBF4                          00000004
CWG1DBF5                          00000005
CWG1DBR                           00000691
CWG1DBR0                          00000000
CWG1DBR1                          00000001
CWG1DBR2                          00000002
CWG1DBR3                          00000003
CWG1DBR4                          00000004
CWG1DBR5                          00000005
CWG1EN                            00000007
CWG1IN                            00000005
CWG1INAS                          00000000
CWG1IS0                           00000000
CWG1IS1                           00000001
CWG1IS2                           00000002
CWG1IS3                           00000003
CWG1ISM                           0000069A
CWG1LD                            00000006
CWG1LSAC0                         00000002
CWG1LSAC1                         00000003
CWG1LSBD0                         00000004
CWG1LSBD1                         00000005
CWG1MODE0                         00000000
CWG1MODE1                         00000001
CWG1MODE2                         00000002
CWG1OCON0                         00000695
CWG1OVRA                          00000004
CWG1OVRB                          00000005
CWG1OVRC                          00000006
CWG1OVRD                          00000007
CWG1POLA                          00000000
CWG1POLB                          00000001
CWG1POLC                          00000002
CWG1POLD                          00000003
MPASM 5.77                        WS2813.ASM   8-13-2018  13:36:12         PAGE 64


SYMBOL TABLE
  LABEL                             VALUE 

CWG1REN                           00000006
CWG1SHUTDOWN                      00000007
CWG1STRA                          00000000
CWG1STRB                          00000001
CWG1STRC                          00000002
CWG1STRD                          00000003
CWG1TMR2AS                        00000004
CWG1TMR4AS                        00000005
CWG1TMR6AS                        00000006
CWGIE                             00000005
CWGIF                             00000005
CWGINPPS                          00000E17
CWGINPPS0                         00000000
CWGINPPS1                         00000001
CWGINPPS2                         00000002
CWGINPPS3                         00000003
CWGINPPS4                         00000004
C_SHAD                            00000000
D1N                               00000000
D1PSS0                            00000002
D1PSS1                            00000003
D1S0                              00000000
D1S1                              00000001
D1S2                              00000002
D1S3                              00000003
D1S4                              00000004
D1S5                              00000005
D1T                               00000001
D2N                               00000002
D2S0                              00000000
D2S1                              00000001
D2S2                              00000002
D2S3                              00000003
D2S4                              00000004
D2S5                              00000005
D2T                               00000003
D3N                               00000004
D3S0                              00000000
D3S1                              00000001
D3S2                              00000002
D3S3                              00000003
D3S4                              00000004
D3S5                              00000005
D3T                               00000005
D4N                               00000006
D4S0                              00000000
D4S1                              00000001
D4S2                              00000002
D4S3                              00000003
D4S4                              00000004
D4S5                              00000005
D4T                               00000007
DAC1CON0                          00000118
MPASM 5.77                        WS2813.ASM   8-13-2018  13:36:12         PAGE 65


SYMBOL TABLE
  LABEL                             VALUE 

DAC1CON1                          00000119
DAC1EN                            00000007
DAC1OE                            00000005
DAC1R0                            00000000
DAC1R1                            00000001
DAC1R2                            00000002
DAC1R3                            00000003
DAC1R4                            00000004
DAC1R5                            00000005
DAC1R6                            00000006
DAC1R7                            00000007
DAT0                              00000000
DAT1                              00000001
DAT10                             00000002
DAT11                             00000003
DAT12                             00000004
DAT13                             00000005
DAT14                             00000006
DAT15                             00000007
DAT2                              00000002
DAT3                              00000003
DAT4                              00000004
DAT5                              00000005
DAT6                              00000006
DAT7                              00000007
DAT8                              00000000
DAT9                              00000001
DBF0                              00000000
DBF1                              00000001
DBF2                              00000002
DBF3                              00000003
DBF4                              00000004
DBF5                              00000005
DBR0                              00000000
DBR1                              00000001
DBR2                              00000002
DBR3                              00000003
DBR4                              00000004
DBR5                              00000005
DC                                00000001
DC0                               00000006
DC1                               00000007
DC2                               00000000
DC3                               00000001
DC4                               00000002
DC5                               00000003
DC6                               00000004
DC7                               00000005
DC8                               00000006
DC9                               00000007
DC_SHAD                           00000001
DELAY                             000004BB
DHEN                              00000000
MPASM 5.77                        WS2813.ASM   8-13-2018  13:36:12         PAGE 66


SYMBOL TABLE
  LABEL                             VALUE 

DLEN0                             00000004
DLEN1                             00000005
DLEN2                             00000006
DLEN3                             00000007
DONE                              000004C6
D_NOT_A                           00000005
EN                                00000007
ERR0                              00000000
ERR1                              00000001
ERR10                             00000002
ERR11                             00000003
ERR12                             00000004
ERR13                             00000005
ERR14                             00000006
ERR15                             00000007
ERR2                              00000002
ERR3                              00000003
ERR4                              00000004
ERR5                              00000005
ERR6                              00000006
ERR7                              00000007
ERR8                              00000000
ERR9                              00000001
ERRH0                             00000000
ERRH1                             00000001
ERRH2                             00000002
ERRH3                             00000003
ERRH4                             00000004
ERRH5                             00000005
ERRH6                             00000006
ERRH7                             00000007
ERRL0                             00000000
ERRL1                             00000001
ERRL2                             00000002
ERRL3                             00000003
ERRL4                             00000004
ERRL5                             00000005
ERRL6                             00000006
ERRL7                             00000007
F                                 00000001
FERR                              00000002
FMT                               00000004
FRAMECOUNT                        00000123
FREE                              00000004
FSR0                              00000004
FSR0H                             00000005
FSR0H_SHAD                        00000FE9
FSR0L                             00000004
FSR0L_SHAD                        00000FE8
FSR1                              00000006
FSR1H                             00000007
FSR1H_SHAD                        00000FEB
FSR1L                             00000006
MPASM 5.77                        WS2813.ASM   8-13-2018  13:36:12         PAGE 67


SYMBOL TABLE
  LABEL                             VALUE 

FSR1L_SHAD                        00000FEA
FULL                              00000000
FVRCON                            00000117
FVREN                             00000007
FVRRDY                            00000006
G1EN                              00000007
G1POL                             00000000
G2POL                             00000001
G3POL                             00000002
G4D1N                             00000000
G4D1T                             00000001
G4D2N                             00000002
G4D2T                             00000003
G4D3N                             00000004
G4D3T                             00000005
G4D4N                             00000006
G4D4T                             00000007
G4POL                             00000003
GCEN                              00000007
GIE                               00000007
GO                                00000001
GO_NOT_DONE                       00000001
GREEN_SPECTRUM_CH                 3
HADR0                             00000000
HADR1                             00000001
HADR10                            00000002
HADR11                            00000003
HADR12                            00000004
HADR13                            00000005
HADR14                            00000006
HADR15                            00000007
HADR3                             00000003
HADR4                             00000004
HADR5                             00000005
HADR6                             00000006
HADR7                             00000007
HADR8                             00000000
HADR9                             00000001
HARD2                             00000002
HFIOFL                            00000003
HFIOFR                            00000004
HFIOFS                            00000000
HIDC4                             00000004
HIDC5                             00000005
HIDRVC                            0000040E
IL                                000004C3
IN                                00000005
IN0                               00000000
IN1                               00000001
IN10                              00000002
IN11                              00000003
IN12                              00000004
IN13                              00000005
MPASM 5.77                        WS2813.ASM   8-13-2018  13:36:12         PAGE 68


SYMBOL TABLE
  LABEL                             VALUE 

IN14                              00000006
IN15                              00000007
IN2                               00000002
IN3                               00000003
IN4                               00000004
IN5                               00000005
IN6                               00000006
IN7                               00000007
IN8                               00000000
IN9                               00000001
INAS                              00000000
INDF0                             00000000
INDF1                             00000001
INITIAL                           00000000
INLVLA                            0000038C
INLVLA0                           00000000
INLVLA1                           00000001
INLVLA2                           00000002
INLVLA3                           00000003
INLVLA4                           00000004
INLVLA5                           00000005
INLVLC                            0000038E
INLVLC0                           00000000
INLVLC1                           00000001
INLVLC2                           00000002
INLVLC3                           00000003
INLVLC4                           00000004
INLVLC5                           00000005
INTCON                            0000000B
INTE                              00000004
INTEDG                            00000006
INTF                              00000001
INTM                              00000003
INTN                              00000003
INTP                              00000004
INTPPS                            00000E10
INTPPS0                           00000000
INTPPS1                           00000001
INTPPS2                           00000002
INTPPS3                           00000003
INTPPS4                           00000004
INVALID                           00000004
IOCAF                             00000393
IOCAF0                            00000000
IOCAF1                            00000001
IOCAF2                            00000002
IOCAF3                            00000003
IOCAF4                            00000004
IOCAF5                            00000005
IOCAN                             00000392
IOCAN0                            00000000
IOCAN1                            00000001
IOCAN2                            00000002
MPASM 5.77                        WS2813.ASM   8-13-2018  13:36:12         PAGE 69


SYMBOL TABLE
  LABEL                             VALUE 

IOCAN3                            00000003
IOCAN4                            00000004
IOCAN5                            00000005
IOCAP                             00000391
IOCAP0                            00000000
IOCAP1                            00000001
IOCAP2                            00000002
IOCAP3                            00000003
IOCAP4                            00000004
IOCAP5                            00000005
IOCCF                             00000399
IOCCF0                            00000000
IOCCF1                            00000001
IOCCF2                            00000002
IOCCF3                            00000003
IOCCF4                            00000004
IOCCF5                            00000005
IOCCF6                            00000006
IOCCF7                            00000007
IOCCN                             00000398
IOCCN0                            00000000
IOCCN1                            00000001
IOCCN2                            00000002
IOCCN3                            00000003
IOCCN4                            00000004
IOCCN5                            00000005
IOCCN6                            00000006
IOCCN7                            00000007
IOCCP                             00000397
IOCCP0                            00000000
IOCCP1                            00000001
IOCCP2                            00000002
IOCCP3                            00000003
IOCCP4                            00000004
IOCCP5                            00000005
IOCCP6                            00000006
IOCCP7                            00000007
IOCIE                             00000003
IOCIF                             00000000
IRCF0                             00000003
IRCF1                             00000004
IRCF2                             00000005
IRCF3                             00000006
IS0                               00000000
IS1                               00000001
IS2                               00000002
IS3                               00000003
K10                               00000000
K11                               00000001
K110                              00000002
K111                              00000003
K112                              00000004
K113                              00000005
MPASM 5.77                        WS2813.ASM   8-13-2018  13:36:12         PAGE 70


SYMBOL TABLE
  LABEL                             VALUE 

K114                              00000006
K115                              00000007
K12                               00000002
K13                               00000003
K14                               00000004
K15                               00000005
K16                               00000006
K17                               00000007
K18                               00000000
K19                               00000001
K20                               00000000
K21                               00000001
K210                              00000002
K211                              00000003
K212                              00000004
K213                              00000005
K214                              00000006
K215                              00000007
K22                               00000002
K23                               00000003
K24                               00000004
K25                               00000005
K26                               00000006
K27                               00000007
K28                               00000000
K29                               00000001
K30                               00000000
K31                               00000001
K310                              00000002
K311                              00000003
K312                              00000004
K313                              00000005
K314                              00000006
K315                              00000007
K32                               00000002
K33                               00000003
K34                               00000004
K35                               00000005
K36                               00000006
K37                               00000007
K38                               00000000
K39                               00000001
LADR10                            00000002
LADR11                            00000003
LADR12                            00000004
LADR13                            00000005
LADR14                            00000006
LADR15                            00000007
LADR2                             00000002
LADR3                             00000003
LADR4                             00000004
LADR5                             00000005
LADR6                             00000006
MPASM 5.77                        WS2813.ASM   8-13-2018  13:36:12         PAGE 71


SYMBOL TABLE
  LABEL                             VALUE 

LADR7                             00000007
LADR8                             00000000
LADR9                             00000001
LATA                              0000010C
LATA0                             00000000
LATA1                             00000001
LATA2                             00000002
LATA3                             00000003
LATA4                             00000004
LATA5                             00000005
LATC                              0000010E
LATC0                             00000000
LATC1                             00000001
LATC2                             00000002
LATC3                             00000003
LATC4                             00000004
LATC5                             00000005
LC1D1S0                           00000000
LC1D1S1                           00000001
LC1D1S2                           00000002
LC1D1S3                           00000003
LC1D1S4                           00000004
LC1D1S5                           00000005
LC1D2S0                           00000000
LC1D2S1                           00000001
LC1D2S2                           00000002
LC1D2S3                           00000003
LC1D2S4                           00000004
LC1D2S5                           00000005
LC1D3S0                           00000000
LC1D3S1                           00000001
LC1D3S2                           00000002
LC1D3S3                           00000003
LC1D3S4                           00000004
LC1D3S5                           00000005
LC1D4S0                           00000000
LC1D4S1                           00000001
LC1D4S2                           00000002
LC1D4S3                           00000003
LC1D4S4                           00000004
LC1D4S5                           00000005
LC1EN                             00000007
LC1G1D1N                          00000000
LC1G1D1T                          00000001
LC1G1D2N                          00000002
LC1G1D2T                          00000003
LC1G1D3N                          00000004
LC1G1D3T                          00000005
LC1G1D4N                          00000006
LC1G1D4T                          00000007
LC1G1POL                          00000000
LC1G2D1N                          00000000
LC1G2D1T                          00000001
MPASM 5.77                        WS2813.ASM   8-13-2018  13:36:12         PAGE 72


SYMBOL TABLE
  LABEL                             VALUE 

LC1G2D2N                          00000002
LC1G2D2T                          00000003
LC1G2D3N                          00000004
LC1G2D3T                          00000005
LC1G2D4N                          00000006
LC1G2D4T                          00000007
LC1G2POL                          00000001
LC1G3D1N                          00000000
LC1G3D1T                          00000001
LC1G3D2N                          00000002
LC1G3D2T                          00000003
LC1G3D3N                          00000004
LC1G3D3T                          00000005
LC1G3D4N                          00000006
LC1G3D4T                          00000007
LC1G3POL                          00000002
LC1G4D1N                          00000000
LC1G4D1T                          00000001
LC1G4D2N                          00000002
LC1G4D2T                          00000003
LC1G4D3N                          00000004
LC1G4D3T                          00000005
LC1G4D4N                          00000006
LC1G4D4T                          00000007
LC1G4POL                          00000003
LC1INTN                           00000003
LC1INTP                           00000004
LC1MODE0                          00000000
LC1MODE1                          00000001
LC1MODE2                          00000002
LC1OUT                            00000005
LC1POL                            00000007
LC2D1S0                           00000000
LC2D1S1                           00000001
LC2D1S2                           00000002
LC2D1S3                           00000003
LC2D1S4                           00000004
LC2D1S5                           00000005
LC2D2S0                           00000000
LC2D2S1                           00000001
LC2D2S2                           00000002
LC2D2S3                           00000003
LC2D2S4                           00000004
LC2D2S5                           00000005
LC2D3S0                           00000000
LC2D3S1                           00000001
LC2D3S2                           00000002
LC2D3S3                           00000003
LC2D3S4                           00000004
LC2D3S5                           00000005
LC2D4S0                           00000000
LC2D4S1                           00000001
LC2D4S2                           00000002
MPASM 5.77                        WS2813.ASM   8-13-2018  13:36:12         PAGE 73


SYMBOL TABLE
  LABEL                             VALUE 

LC2D4S3                           00000003
LC2D4S4                           00000004
LC2D4S5                           00000005
LC2EN                             00000007
LC2G1D1N                          00000000
LC2G1D1T                          00000001
LC2G1D2N                          00000002
LC2G1D2T                          00000003
LC2G1D3N                          00000004
LC2G1D3T                          00000005
LC2G1D4N                          00000006
LC2G1D4T                          00000007
LC2G1POL                          00000000
LC2G2D1N                          00000000
LC2G2D1T                          00000001
LC2G2D2N                          00000002
LC2G2D2T                          00000003
LC2G2D3N                          00000004
LC2G2D3T                          00000005
LC2G2D4N                          00000006
LC2G2D4T                          00000007
LC2G2POL                          00000001
LC2G3D1N                          00000000
LC2G3D1T                          00000001
LC2G3D2N                          00000002
LC2G3D2T                          00000003
LC2G3D3N                          00000004
LC2G3D3T                          00000005
LC2G3D4N                          00000006
LC2G3D4T                          00000007
LC2G3POL                          00000002
LC2G4D1N                          00000000
LC2G4D1T                          00000001
LC2G4D2N                          00000002
LC2G4D2T                          00000003
LC2G4D3N                          00000004
LC2G4D3T                          00000005
LC2G4D4N                          00000006
LC2G4D4T                          00000007
LC2G4POL                          00000003
LC2INTN                           00000003
LC2INTP                           00000004
LC2MODE0                          00000000
LC2MODE1                          00000001
LC2MODE2                          00000002
LC2OUT                            00000005
LC2POL                            00000007
LC3D1S0                           00000000
LC3D1S1                           00000001
LC3D1S2                           00000002
LC3D1S3                           00000003
LC3D1S4                           00000004
LC3D1S5                           00000005
MPASM 5.77                        WS2813.ASM   8-13-2018  13:36:12         PAGE 74


SYMBOL TABLE
  LABEL                             VALUE 

LC3D2S0                           00000000
LC3D2S1                           00000001
LC3D2S2                           00000002
LC3D2S3                           00000003
LC3D2S4                           00000004
LC3D2S5                           00000005
LC3D3S0                           00000000
LC3D3S1                           00000001
LC3D3S2                           00000002
LC3D3S3                           00000003
LC3D3S4                           00000004
LC3D3S5                           00000005
LC3D4S0                           00000000
LC3D4S1                           00000001
LC3D4S2                           00000002
LC3D4S3                           00000003
LC3D4S4                           00000004
LC3D4S5                           00000005
LC3EN                             00000007
LC3G1D1N                          00000000
LC3G1D1T                          00000001
LC3G1D2N                          00000002
LC3G1D2T                          00000003
LC3G1D3N                          00000004
LC3G1D3T                          00000005
LC3G1D4N                          00000006
LC3G1D4T                          00000007
LC3G1POL                          00000000
LC3G2D1N                          00000000
LC3G2D1T                          00000001
LC3G2D2N                          00000002
LC3G2D2T                          00000003
LC3G2D3N                          00000004
LC3G2D3T                          00000005
LC3G2D4N                          00000006
LC3G2D4T                          00000007
LC3G2POL                          00000001
LC3G3D1N                          00000000
LC3G3D1T                          00000001
LC3G3D2N                          00000002
LC3G3D2T                          00000003
LC3G3D3N                          00000004
LC3G3D3T                          00000005
LC3G3D4N                          00000006
LC3G3D4T                          00000007
LC3G3POL                          00000002
LC3G4D1N                          00000000
LC3G4D1T                          00000001
LC3G4D2N                          00000002
LC3G4D2T                          00000003
LC3G4D3N                          00000004
LC3G4D3T                          00000005
LC3G4D4N                          00000006
MPASM 5.77                        WS2813.ASM   8-13-2018  13:36:12         PAGE 75


SYMBOL TABLE
  LABEL                             VALUE 

LC3G4D4T                          00000007
LC3G4POL                          00000003
LC3INTN                           00000003
LC3INTP                           00000004
LC3MODE0                          00000000
LC3MODE1                          00000001
LC3MODE2                          00000002
LC3OUT                            00000005
LC3POL                            00000007
LC4D1S0                           00000000
LC4D1S1                           00000001
LC4D1S2                           00000002
LC4D1S3                           00000003
LC4D1S4                           00000004
LC4D1S5                           00000005
LC4D2S0                           00000000
LC4D2S1                           00000001
LC4D2S2                           00000002
LC4D2S3                           00000003
LC4D2S4                           00000004
LC4D2S5                           00000005
LC4D3S0                           00000000
LC4D3S1                           00000001
LC4D3S2                           00000002
LC4D3S3                           00000003
LC4D3S4                           00000004
LC4D3S5                           00000005
LC4D4S0                           00000000
LC4D4S1                           00000001
LC4D4S2                           00000002
LC4D4S3                           00000003
LC4D4S4                           00000004
LC4D4S5                           00000005
LC4EN                             00000007
LC4G1D1N                          00000000
LC4G1D1T                          00000001
LC4G1D2N                          00000002
LC4G1D2T                          00000003
LC4G1D3N                          00000004
LC4G1D3T                          00000005
LC4G1D4N                          00000006
LC4G1D4T                          00000007
LC4G1POL                          00000000
LC4G2D1N                          00000000
LC4G2D1T                          00000001
LC4G2D2N                          00000002
LC4G2D2T                          00000003
LC4G2D3N                          00000004
LC4G2D3T                          00000005
LC4G2D4N                          00000006
LC4G2D4T                          00000007
LC4G2POL                          00000001
LC4G3D1N                          00000000
MPASM 5.77                        WS2813.ASM   8-13-2018  13:36:12         PAGE 76


SYMBOL TABLE
  LABEL                             VALUE 

LC4G3D1T                          00000001
LC4G3D2N                          00000002
LC4G3D2T                          00000003
LC4G3D3N                          00000004
LC4G3D3T                          00000005
LC4G3D4N                          00000006
LC4G3D4T                          00000007
LC4G3POL                          00000002
LC4G4D1N                          00000000
LC4G4D1T                          00000001
LC4G4D2N                          00000002
LC4G4D2T                          00000003
LC4G4D3N                          00000004
LC4G4D3T                          00000005
LC4G4D4N                          00000006
LC4G4D4T                          00000007
LC4G4POL                          00000003
LC4INTN                           00000003
LC4INTP                           00000004
LC4MODE0                          00000000
LC4MODE1                          00000001
LC4MODE2                          00000002
LC4OUT                            00000005
LC4POL                            00000007
LD                                00000006
LDAR0                             00000000
LDAR1                             00000001
LFIOFR                            00000001
LSAC0                             00000002
LSAC1                             00000003
LSBD0                             00000004
LSBD1                             00000005
LWLO                              00000005
MC1OUT                            00000000
MC2OUT                            00000001
MFIOFR                            00000002
MISS0                             00000000
MISS1                             00000001
MISS10                            00000002
MISS11                            00000003
MISS12                            00000004
MISS13                            00000005
MISS14                            00000006
MISS15                            00000007
MISS2                             00000002
MISS3                             00000003
MISS4                             00000004
MISS5                             00000005
MISS6                             00000006
MISS7                             00000007
MISS8                             00000000
MISS9                             00000001
MLC1OUT                           00000000
MPASM 5.77                        WS2813.ASM   8-13-2018  13:36:12         PAGE 77


SYMBOL TABLE
  LABEL                             VALUE 

MLC2OUT                           00000001
MLC3OUT                           00000002
MLC4OUT                           00000003
MODE                              00000000
MODE0                             00000000
MODE1                             00000001
MODE2                             00000002
MODE3                             00000003
MODE4                             00000004
MOV16                             
MOVLF                             
MOVLF16                           
MPP                               00000002
MSGEQ7_ANSEL_PIN                  ANSA2
MSGEQ7_READ_PIN                   TRISA2
MSGEQ7_RESET                      
MSGEQ7_RESET_PIN                  LATC5
MSGEQ7_STROBE                     
MSGEQ7_STROBE_HIGH                
MSGEQ7_STROBE_LOW                 
MSGEQ7_STROBE_PIN                 LATC3
MSGEQ7_WPU_PIN                    WPUA2
MSK0                              00000000
MSK1                              00000001
MSK2                              00000002
MSK3                              00000003
MSK4                              00000004
MSK5                              00000005
MSK6                              00000006
MSK7                              00000007
NOT_BOR                           00000000
NOT_PD                            00000003
NOT_POR                           00000001
NOT_RI                            00000002
NOT_RMCLR                         00000003
NOT_RWDT                          00000004
NOT_T1SYNC                        00000002
NOT_TO                            00000004
NOT_WDTWV                         00000005
NOT_WPUEN                         00000007
NUM_LEDS                          60
ODA0                              00000000
ODA1                              00000001
ODA2                              00000002
ODA4                              00000004
ODA5                              00000005
ODC0                              00000000
ODC1                              00000001
ODC2                              00000002
ODC3                              00000003
ODC4                              00000004
ODC5                              00000005
ODCONA                            0000028C
MPASM 5.77                        WS2813.ASM   8-13-2018  13:36:12         PAGE 78


SYMBOL TABLE
  LABEL                             VALUE 

ODCONC                            0000028E
OERR                              00000001
OL                                000004BE
ON                                00000007
OPTION_REG                        00000095
OSCCON                            00000099
OSCFIE                            00000007
OSCSTAT                           0000009A
OSCTUNE                           00000098
OSFIF                             00000007
OSTS                              00000005
OUT                               00000005
OUT0                              00000000
OUT1                              00000001
OUT10                             00000002
OUT11                             00000003
OUT12                             00000004
OUT13                             00000005
OUT14                             00000006
OUT15                             00000007
OUT16                             00000000
OUT17                             00000001
OUT18                             00000002
OUT19                             00000003
OUT2                              00000002
OUT20                             00000004
OUT21                             00000005
OUT22                             00000006
OUT23                             00000007
OUT24                             00000000
OUT25                             00000001
OUT26                             00000002
OUT27                             00000003
OUT28                             00000004
OUT29                             00000005
OUT3                              00000003
OUT30                             00000006
OUT31                             00000007
OUT32                             00000000
OUT33                             00000001
OUT34                             00000002
OUT35                             00000003
OUT4                              00000004
OUT5                              00000005
OUT6                              00000006
OUT7                              00000007
OUT8                              00000000
OUT9                              00000001
OUTPS0                            00000000
OUTPS1                            00000001
OUTPS2                            00000002
OUTPS3                            00000003
OVRA                              00000004
MPASM 5.77                        WS2813.ASM   8-13-2018  13:36:12         PAGE 79


SYMBOL TABLE
  LABEL                             VALUE 

OVRB                              00000005
OVRC                              00000006
OVRD                              00000007
P                                 00000004
P3TSEL0                           00000004
P3TSEL1                           00000005
P4TSEL0                           00000006
P4TSEL1                           00000007
PCIE                              00000006
PCL                               00000002
PCLATH                            0000000A
PCLATH_SHAD                       00000FE7
PCON                              00000096
PEIE                              00000006
PEN                               00000002
PER0                              00000000
PER1                              00000001
PER10                             00000002
PER11                             00000003
PER12                             00000004
PER13                             00000005
PER14                             00000006
PER15                             00000007
PER2                              00000002
PER3                              00000003
PER4                              00000004
PER5                              00000005
PER6                              00000006
PER7                              00000007
PER8                              00000000
PER9                              00000001
PERH0                             00000000
PERH1                             00000001
PERH2                             00000002
PERH3                             00000003
PERH4                             00000004
PERH5                             00000005
PERH6                             00000006
PERH7                             00000007
PERL0                             00000000
PERL1                             00000001
PERL2                             00000002
PERL3                             00000003
PERL4                             00000004
PERL5                             00000005
PERL6                             00000006
PERL7                             00000007
PHP                               00000006
PHS0                              00000000
PHS1                              00000001
PHS2                              00000002
PHS3                              00000003
PHS4                              00000004
MPASM 5.77                        WS2813.ASM   8-13-2018  13:36:12         PAGE 80


SYMBOL TABLE
  LABEL                             VALUE 

PHS5                              00000005
PHS6                              00000006
PHS7                              00000007
PHS8                              00000000
PHS9                              00000001
PHSL8                             00000000
PHSL9                             00000001
PID1ACC                           0000060F
PID1ACC0                          00000000
PID1ACC1                          00000001
PID1ACC10                         00000002
PID1ACC11                         00000003
PID1ACC12                         00000004
PID1ACC13                         00000005
PID1ACC14                         00000006
PID1ACC15                         00000007
PID1ACC16                         00000000
PID1ACC17                         00000001
PID1ACC18                         00000002
PID1ACC19                         00000003
PID1ACC2                          00000002
PID1ACC20                         00000004
PID1ACC21                         00000005
PID1ACC22                         00000006
PID1ACC23                         00000007
PID1ACC24                         00000000
PID1ACC25                         00000001
PID1ACC26                         00000002
PID1ACC27                         00000003
PID1ACC28                         00000004
PID1ACC29                         00000005
PID1ACC3                          00000003
PID1ACC30                         00000006
PID1ACC31                         00000007
PID1ACC32                         00000000
PID1ACC33                         00000001
PID1ACC34                         00000002
PID1ACC4                          00000004
PID1ACC5                          00000005
PID1ACC6                          00000006
PID1ACC7                          00000007
PID1ACC8                          00000000
PID1ACC9                          00000001
PID1ACCHH                         00000612
PID1ACCHL                         00000611
PID1ACCLH                         00000610
PID1ACCLL                         0000060F
PID1ACCU                          00000613
PID1BUSY                          00000006
PID1CON                           00000614
PID1DIE                           00000000
PID1DIF                           00000000
PID1EIE                           00000001
MPASM 5.77                        WS2813.ASM   8-13-2018  13:36:12         PAGE 81


SYMBOL TABLE
  LABEL                             VALUE 

PID1EIF                           00000001
PID1EN                            00000007
PID1IN                            0000058E
PID1IN0                           00000000
PID1IN1                           00000001
PID1IN10                          00000002
PID1IN11                          00000003
PID1IN12                          00000004
PID1IN13                          00000005
PID1IN14                          00000006
PID1IN15                          00000007
PID1IN2                           00000002
PID1IN3                           00000003
PID1IN4                           00000004
PID1IN5                           00000005
PID1IN6                           00000006
PID1IN7                           00000007
PID1IN8                           00000000
PID1IN9                           00000001
PID1INH                           0000058F
PID1INL                           0000058E
PID1K1                            00000590
PID1K10                           00000000
PID1K11                           00000001
PID1K110                          00000002
PID1K111                          00000003
PID1K112                          00000004
PID1K113                          00000005
PID1K114                          00000006
PID1K115                          00000007
PID1K12                           00000002
PID1K13                           00000003
PID1K14                           00000004
PID1K15                           00000005
PID1K16                           00000006
PID1K17                           00000007
PID1K18                           00000000
PID1K19                           00000001
PID1K1H                           00000591
PID1K1L                           00000590
PID1K2                            00000592
PID1K20                           00000000
PID1K21                           00000001
PID1K210                          00000002
PID1K211                          00000003
PID1K212                          00000004
PID1K213                          00000005
PID1K214                          00000006
PID1K215                          00000007
PID1K22                           00000002
PID1K23                           00000003
PID1K24                           00000004
PID1K25                           00000005
MPASM 5.77                        WS2813.ASM   8-13-2018  13:36:12         PAGE 82


SYMBOL TABLE
  LABEL                             VALUE 

PID1K26                           00000006
PID1K27                           00000007
PID1K28                           00000000
PID1K29                           00000001
PID1K2H                           00000593
PID1K2L                           00000592
PID1K3                            00000594
PID1K30                           00000000
PID1K31                           00000001
PID1K310                          00000002
PID1K311                          00000003
PID1K312                          00000004
PID1K313                          00000005
PID1K314                          00000006
PID1K315                          00000007
PID1K32                           00000002
PID1K33                           00000003
PID1K34                           00000004
PID1K35                           00000005
PID1K36                           00000006
PID1K37                           00000007
PID1K38                           00000000
PID1K39                           00000001
PID1K3H                           00000595
PID1K3L                           00000594
PID1MODE0                         00000000
PID1MODE1                         00000001
PID1MODE2                         00000002
PID1OUT                           00000596
PID1OUT0                          00000000
PID1OUT1                          00000001
PID1OUT10                         00000002
PID1OUT11                         00000003
PID1OUT12                         00000004
PID1OUT13                         00000005
PID1OUT14                         00000006
PID1OUT15                         00000007
PID1OUT16                         00000000
PID1OUT17                         00000001
PID1OUT18                         00000002
PID1OUT19                         00000003
PID1OUT2                          00000002
PID1OUT20                         00000004
PID1OUT21                         00000005
PID1OUT22                         00000006
PID1OUT23                         00000007
PID1OUT24                         00000000
PID1OUT25                         00000001
PID1OUT26                         00000002
PID1OUT27                         00000003
PID1OUT28                         00000004
PID1OUT29                         00000005
PID1OUT3                          00000003
MPASM 5.77                        WS2813.ASM   8-13-2018  13:36:12         PAGE 83


SYMBOL TABLE
  LABEL                             VALUE 

PID1OUT30                         00000006
PID1OUT31                         00000007
PID1OUT32                         00000000
PID1OUT33                         00000001
PID1OUT34                         00000002
PID1OUT35                         00000003
PID1OUT4                          00000004
PID1OUT5                          00000005
PID1OUT6                          00000006
PID1OUT7                          00000007
PID1OUT8                          00000000
PID1OUT9                          00000001
PID1OUTHH                         00000599
PID1OUTHL                         00000598
PID1OUTLH                         00000597
PID1OUTLL                         00000596
PID1OUTU                          0000059A
PID1SET                           0000058C
PID1SET0                          00000000
PID1SET1                          00000001
PID1SET10                         00000002
PID1SET11                         00000003
PID1SET12                         00000004
PID1SET13                         00000005
PID1SET14                         00000006
PID1SET15                         00000007
PID1SET2                          00000002
PID1SET3                          00000003
PID1SET4                          00000004
PID1SET5                          00000005
PID1SET6                          00000006
PID1SET7                          00000007
PID1SET8                          00000000
PID1SET9                          00000001
PID1SETH                          0000058D
PID1SETL                          0000058C
PID1Z1                            0000059B
PID1Z10                           00000000
PID1Z11                           00000001
PID1Z110                          00000002
PID1Z111                          00000003
PID1Z112                          00000004
PID1Z113                          00000005
PID1Z114                          00000006
PID1Z115                          00000007
PID1Z116                          00000000
PID1Z12                           00000002
PID1Z13                           00000003
PID1Z14                           00000004
PID1Z15                           00000005
PID1Z16                           00000006
PID1Z17                           00000007
PID1Z18                           00000000
MPASM 5.77                        WS2813.ASM   8-13-2018  13:36:12         PAGE 84


SYMBOL TABLE
  LABEL                             VALUE 

PID1Z19                           00000001
PID1Z1H                           0000059C
PID1Z1L                           0000059B
PID1Z1U                           0000059D
PID1Z2                            0000060C
PID1Z20                           00000000
PID1Z21                           00000001
PID1Z210                          00000002
PID1Z211                          00000003
PID1Z212                          00000004
PID1Z213                          00000005
PID1Z214                          00000006
PID1Z215                          00000007
PID1Z216                          00000000
PID1Z22                           00000002
PID1Z23                           00000003
PID1Z24                           00000004
PID1Z25                           00000005
PID1Z26                           00000006
PID1Z27                           00000007
PID1Z28                           00000000
PID1Z29                           00000001
PID1Z2H                           0000060D
PID1Z2L                           0000060C
PID1Z2U                           0000060E
PIE1                              00000090
PIE2                              00000091
PIE3                              00000092
PIE4                              00000093
PIE5                              00000094
PIR1                              00000010
PIR2                              00000011
PIR3                              00000012
PIR4                              00000013
PIR5                              00000014
PLEN0                             00000000
PLEN1                             00000001
PLEN2                             00000002
PLEN3                             00000003
PLLR                              00000006
PMADR                             00000191
PMADRH                            00000192
PMADRL                            00000191
PMCON1                            00000195
PMCON2                            00000196
PMDAT                             00000193
PMDATH                            00000194
PMDATL                            00000193
POLA                              00000000
POLB                              00000001
POLC                              00000002
POLD                              00000003
POL_AT1CON0                       00000003
MPASM 5.77                        WS2813.ASM   8-13-2018  13:36:12         PAGE 85


SYMBOL TABLE
  LABEL                             VALUE 

POL_CLC1POL                       00000007
POL_CLC2POL                       00000007
POL_CLC3POL                       00000007
POL_CLC4POL                       00000007
POL_PWM3CON                       00000004
POL_PWM4CON                       00000004
PORTA                             0000000C
PORTC                             0000000E
PPSLOCK                           00000E0F
PPSLOCKED                         00000000
PR2                               0000001B
PR4                               00000414
PR6                               0000041B
PREC                              00000006
PRP                               00000004
PS0_AT1CON0                       00000004
PS0_OPTION_REG                    00000000
PS1_AT1CON0                       00000005
PS1_OPTION_REG                    00000001
PS2                               00000002
PSA                               00000003
PSCNT0                            00000000
PSCNT1                            00000001
PSCNT10                           00000002
PSCNT11                           00000003
PSCNT12                           00000004
PSCNT13                           00000005
PSCNT14                           00000006
PSCNT15                           00000007
PSCNT16                           00000000
PSCNT17                           00000001
PSCNT2                            00000002
PSCNT3                            00000003
PSCNT4                            00000004
PSCNT5                            00000005
PSCNT6                            00000006
PSCNT7                            00000007
PSCNT8                            00000000
PSCNT9                            00000001
PSYNC                             00000007
PWM3CON                           00000619
PWM3DC0                           00000006
PWM3DC1                           00000007
PWM3DC2                           00000000
PWM3DC3                           00000001
PWM3DC4                           00000002
PWM3DC5                           00000003
PWM3DC6                           00000004
PWM3DC7                           00000005
PWM3DC8                           00000006
PWM3DC9                           00000007
PWM3DCH                           00000618
PWM3DCL                           00000617
MPASM 5.77                        WS2813.ASM   8-13-2018  13:36:12         PAGE 86


SYMBOL TABLE
  LABEL                             VALUE 

PWM3EN                            00000007
PWM3OUT                           00000005
PWM3POL                           00000004
PWM4CON                           0000061C
PWM4DC0                           00000006
PWM4DC1                           00000007
PWM4DC2                           00000000
PWM4DC3                           00000001
PWM4DC4                           00000002
PWM4DC5                           00000003
PWM4DC6                           00000004
PWM4DC7                           00000005
PWM4DC8                           00000006
PWM4DC9                           00000007
PWM4DCH                           0000061B
PWM4DCL                           0000061A
PWM4EN                            00000007
PWM4OUT                           00000005
PWM4POL                           00000004
PWMPW0                            00000006
PWMPW1                            00000007
PWMPW2                            00000000
PWMPW3                            00000001
PWMPW4                            00000002
PWMPW5                            00000003
PWMPW6                            00000004
PWMPW7                            00000005
PWMPW8                            00000006
PWMPW9                            00000007
RA0                               00000000
RA0PPS                            00000E90
RA0PPS0                           00000000
RA0PPS1                           00000001
RA0PPS2                           00000002
RA0PPS3                           00000003
RA0PPS4                           00000004
RA1                               00000001
RA1PPS                            00000E91
RA1PPS0                           00000000
RA1PPS1                           00000001
RA1PPS2                           00000002
RA1PPS3                           00000003
RA1PPS4                           00000004
RA2                               00000002
RA2PPS                            00000E92
RA2PPS0                           00000000
RA2PPS1                           00000001
RA2PPS2                           00000002
RA2PPS3                           00000003
RA2PPS4                           00000004
RA3                               00000003
RA4                               00000004
RA4PPS                            00000E94
MPASM 5.77                        WS2813.ASM   8-13-2018  13:36:12         PAGE 87


SYMBOL TABLE
  LABEL                             VALUE 

RA4PPS0                           00000000
RA4PPS1                           00000001
RA4PPS2                           00000002
RA4PPS3                           00000003
RA4PPS4                           00000004
RA5                               00000005
RA5PPS                            00000E95
RA5PPS0                           00000000
RA5PPS1                           00000001
RA5PPS2                           00000002
RA5PPS3                           00000003
RA5PPS4                           00000004
RC0                               00000000
RC0PPS                            00000EA0
RC0PPS0                           00000000
RC0PPS1                           00000001
RC0PPS2                           00000002
RC0PPS3                           00000003
RC0PPS4                           00000004
RC1                               00000001
RC1PPS                            00000EA1
RC1PPS0                           00000000
RC1PPS1                           00000001
RC1PPS2                           00000002
RC1PPS3                           00000003
RC1PPS4                           00000004
RC1REG                            00000199
RC1STA                            0000019D
RC2                               00000002
RC2PPS                            00000EA2
RC2PPS0                           00000000
RC2PPS1                           00000001
RC2PPS2                           00000002
RC2PPS3                           00000003
RC2PPS4                           00000004
RC3                               00000003
RC3PPS                            00000EA3
RC3PPS0                           00000000
RC3PPS1                           00000001
RC3PPS2                           00000002
RC3PPS3                           00000003
RC3PPS4                           00000004
RC4                               00000004
RC4PPS                            00000EA4
RC4PPS0                           00000000
RC4PPS1                           00000001
RC4PPS2                           00000002
RC4PPS3                           00000003
RC4PPS4                           00000004
RC5                               00000005
RC5PPS                            00000EA5
RC5PPS0                           00000000
RC5PPS1                           00000001
MPASM 5.77                        WS2813.ASM   8-13-2018  13:36:12         PAGE 88


SYMBOL TABLE
  LABEL                             VALUE 

RC5PPS2                           00000002
RC5PPS3                           00000003
RC5PPS4                           00000004
RCEN                              00000003
RCIDL                             00000006
RCIE                              00000005
RCIF                              00000005
RCREG                             00000199
RCREG1                            00000199
RCSTA                             0000019D
RCSTA1                            0000019D
RD                                00000000
READ_ADC                          
READ_SETTLE                       
RED_SPECTRUM_CH                   1
REN                               00000006
RENDER_LOOP                       00000035
REPEAT                            00000006
RES0                              00000000
RES1                              00000001
RES2                              00000002
RES3                              00000003
RES4                              00000004
RES5                              00000005
RES6                              00000006
RES7                              00000007
RES8                              00000000
RES9                              00000001
RSEL0                             00000000
RSEL1                             00000001
RSEL2                             00000002
RSEL3                             00000003
RSEN                              00000001
RSHIFT16                          000006BD
RST                               00000005
RX9                               00000006
RX9D                              00000000
RXPPS                             00000E24
RXPPS0                            00000000
RXPPS1                            00000001
RXPPS2                            00000002
RXPPS3                            00000003
RXPPS4                            00000004
R_NOT_W                           00000002
S                                 00000003
SBCDE                             00000002
SBOREN                            00000007
SCANBUSY                          00000005
SCANCON0                          0000071C
SCANEN                            00000007
SCANGO                            00000006
SCANHADR                          0000071A
SCANHADR0                         00000000
MPASM 5.77                        WS2813.ASM   8-13-2018  13:36:12         PAGE 89


SYMBOL TABLE
  LABEL                             VALUE 

SCANHADR1                         00000001
SCANHADR10                        00000002
SCANHADR11                        00000003
SCANHADR12                        00000004
SCANHADR13                        00000005
SCANHADR14                        00000006
SCANHADR15                        00000007
SCANHADR2                         00000002
SCANHADR3                         00000003
SCANHADR4                         00000004
SCANHADR5                         00000005
SCANHADR6                         00000006
SCANHADR7                         00000007
SCANHADR8                         00000000
SCANHADR9                         00000001
SCANHADRH                         0000071B
SCANHADRL                         0000071A
SCANIE                            00000007
SCANIF                            00000007
SCANINTM                          00000003
SCANINVALID                       00000004
SCANLADR                          00000718
SCANLADR0                         00000000
SCANLADR1                         00000001
SCANLADR10                        00000002
SCANLADR11                        00000003
SCANLADR12                        00000004
SCANLADR13                        00000005
SCANLADR14                        00000006
SCANLADR15                        00000007
SCANLADR2                         00000002
SCANLADR3                         00000003
SCANLADR4                         00000004
SCANLADR5                         00000005
SCANLADR6                         00000006
SCANLADR7                         00000007
SCANLADR8                         00000000
SCANLADR9                         00000001
SCANLADRH                         00000719
SCANLADRL                         00000718
SCANMODE0                         00000000
SCANMODE1                         00000001
SCANTRIG                          0000071D
SCANTSEL0                         00000000
SCANTSEL1                         00000001
SCANTSEL2                         00000002
SCANTSEL3                         00000003
SCIE                              00000005
SCKP                              00000004
SCS0                              00000000
SCS1                              00000001
SDAHT                             00000003
SEN                               00000000
MPASM 5.77                        WS2813.ASM   8-13-2018  13:36:12         PAGE 90


SYMBOL TABLE
  LABEL                             VALUE 

SENDB                             00000003
SET0                              00000000
SET1                              00000001
SET10                             00000002
SET11                             00000003
SET12                             00000004
SET13                             00000005
SET14                             00000006
SET15                             00000007
SET2                              00000002
SET3                              00000003
SET4                              00000004
SET5                              00000005
SET6                              00000006
SET7                              00000007
SET8                              00000000
SET9                              00000001
SHIFT0                            00000000
SHIFT1                            00000001
SHIFT10                           00000002
SHIFT11                           00000003
SHIFT12                           00000004
SHIFT13                           00000005
SHIFT14                           00000006
SHIFT15                           00000007
SHIFT2                            00000002
SHIFT3                            00000003
SHIFT4                            00000004
SHIFT5                            00000005
SHIFT6                            00000006
SHIFT7                            00000007
SHIFT8                            00000000
SHIFT9                            00000001
SHIFTM                            00000001
SHIFTNUM                          00000121
SHUTDOWN                          00000007
SLRA0                             00000000
SLRA1                             00000001
SLRA2                             00000002
SLRA4                             00000004
SLRA5                             00000005
SLRC0                             00000000
SLRC1                             00000001
SLRC2                             00000002
SLRC3                             00000003
SLRC4                             00000004
SLRC5                             00000005
SLRCONA                           0000030C
SLRCONC                           0000030E
SMP                               00000007
SMT1AS                            00000000
SMT1CLK                           00000D9B
SMT1CON0                          00000D98
MPASM 5.77                        WS2813.ASM   8-13-2018  13:36:12         PAGE 91


SYMBOL TABLE
  LABEL                             VALUE 

SMT1CON1                          00000D99
SMT1CPR                           00000D8F
SMT1CPR0                          00000000
SMT1CPR1                          00000001
SMT1CPR10                         00000002
SMT1CPR11                         00000003
SMT1CPR12                         00000004
SMT1CPR13                         00000005
SMT1CPR14                         00000006
SMT1CPR15                         00000007
SMT1CPR16                         00000000
SMT1CPR17                         00000001
SMT1CPR18                         00000002
SMT1CPR19                         00000003
SMT1CPR2                          00000002
SMT1CPR20                         00000004
SMT1CPR21                         00000005
SMT1CPR22                         00000006
SMT1CPR23                         00000007
SMT1CPR3                          00000003
SMT1CPR4                          00000004
SMT1CPR5                          00000005
SMT1CPR6                          00000006
SMT1CPR7                          00000007
SMT1CPR8                          00000000
SMT1CPR9                          00000001
SMT1CPRH                          00000D90
SMT1CPRL                          00000D8F
SMT1CPRU                          00000D91
SMT1CPRUP                         00000007
SMT1CPW                           00000D92
SMT1CPW0                          00000000
SMT1CPW1                          00000001
SMT1CPW10                         00000002
SMT1CPW11                         00000003
SMT1CPW12                         00000004
SMT1CPW13                         00000005
SMT1CPW14                         00000006
SMT1CPW15                         00000007
SMT1CPW16                         00000000
SMT1CPW17                         00000001
SMT1CPW18                         00000002
SMT1CPW19                         00000003
SMT1CPW2                          00000002
SMT1CPW20                         00000004
SMT1CPW21                         00000005
SMT1CPW22                         00000006
SMT1CPW23                         00000007
SMT1CPW3                          00000003
SMT1CPW4                          00000004
SMT1CPW5                          00000005
SMT1CPW6                          00000006
SMT1CPW7                          00000007
MPASM 5.77                        WS2813.ASM   8-13-2018  13:36:12         PAGE 92


SYMBOL TABLE
  LABEL                             VALUE 

SMT1CPW8                          00000000
SMT1CPW9                          00000001
SMT1CPWH                          00000D93
SMT1CPWL                          00000D92
SMT1CPWU                          00000D94
SMT1CPWUP                         00000006
SMT1CSEL0                         00000000
SMT1CSEL1                         00000001
SMT1CSEL2                         00000002
SMT1GO                            00000007
SMT1IE                            00000000
SMT1IF                            00000000
SMT1MODE0                         00000000
SMT1MODE1                         00000001
SMT1MODE2                         00000002
SMT1MODE3                         00000003
SMT1PR                            00000D95
SMT1PR0                           00000000
SMT1PR1                           00000001
SMT1PR10                          00000002
SMT1PR11                          00000003
SMT1PR12                          00000004
SMT1PR13                          00000005
SMT1PR14                          00000006
SMT1PR15                          00000007
SMT1PR16                          00000000
SMT1PR17                          00000001
SMT1PR18                          00000002
SMT1PR19                          00000003
SMT1PR2                           00000002
SMT1PR20                          00000004
SMT1PR21                          00000005
SMT1PR22                          00000006
SMT1PR23                          00000007
SMT1PR3                           00000003
SMT1PR4                           00000004
SMT1PR5                           00000005
SMT1PR6                           00000006
SMT1PR7                           00000007
SMT1PR8                           00000000
SMT1PR9                           00000001
SMT1PRAIE                         00000001
SMT1PRAIF                         00000001
SMT1PRH                           00000D96
SMT1PRL                           00000D95
SMT1PRU                           00000D97
SMT1PS0                           00000000
SMT1PS1                           00000001
SMT1PWAIE                         00000002
SMT1PWAIF                         00000002
SMT1REPEAT                        00000006
SMT1RESET                         00000005
SMT1SIG                           00000D9C
MPASM 5.77                        WS2813.ASM   8-13-2018  13:36:12         PAGE 93


SYMBOL TABLE
  LABEL                             VALUE 

SMT1SIGPPS                        00000E26
SMT1SIGPPS0                       00000000
SMT1SIGPPS1                       00000001
SMT1SIGPPS2                       00000002
SMT1SIGPPS3                       00000003
SMT1SIGPPS4                       00000004
SMT1SSEL0                         00000000
SMT1SSEL1                         00000001
SMT1SSEL2                         00000002
SMT1SSEL3                         00000003
SMT1SSEL4                         00000004
SMT1STAT                          00000D9A
SMT1TMR                           00000D8C
SMT1TMR0                          00000000
SMT1TMR1                          00000001
SMT1TMR10                         00000002
SMT1TMR11                         00000003
SMT1TMR12                         00000004
SMT1TMR13                         00000005
SMT1TMR14                         00000006
SMT1TMR15                         00000007
SMT1TMR16                         00000000
SMT1TMR17                         00000001
SMT1TMR18                         00000002
SMT1TMR19                         00000003
SMT1TMR2                          00000002
SMT1TMR20                         00000004
SMT1TMR21                         00000005
SMT1TMR22                         00000006
SMT1TMR23                         00000007
SMT1TMR3                          00000003
SMT1TMR4                          00000004
SMT1TMR5                          00000005
SMT1TMR6                          00000006
SMT1TMR7                          00000007
SMT1TMR8                          00000000
SMT1TMR9                          00000001
SMT1TMRH                          00000D8D
SMT1TMRL                          00000D8C
SMT1TMRU                          00000D8E
SMT1TS                            00000002
SMT1WIN                           00000D9D
SMT1WINPPS                        00000E27
SMT1WS                            00000001
SMT1WSEL0                         00000000
SMT1WSEL1                         00000001
SMT1WSEL2                         00000002
SMT1WSEL3                         00000003
SMT1WSEL4                         00000004
SMT2AS                            00000000
SMT2CLK                           00000DAD
SMT2CON0                          00000DAA
SMT2CON1                          00000DAB
MPASM 5.77                        WS2813.ASM   8-13-2018  13:36:12         PAGE 94


SYMBOL TABLE
  LABEL                             VALUE 

SMT2CPR                           00000DA1
SMT2CPR0                          00000000
SMT2CPR1                          00000001
SMT2CPR10                         00000002
SMT2CPR11                         00000003
SMT2CPR12                         00000004
SMT2CPR13                         00000005
SMT2CPR14                         00000006
SMT2CPR15                         00000007
SMT2CPR16                         00000000
SMT2CPR17                         00000001
SMT2CPR18                         00000002
SMT2CPR19                         00000003
SMT2CPR2                          00000002
SMT2CPR20                         00000004
SMT2CPR21                         00000005
SMT2CPR22                         00000006
SMT2CPR23                         00000007
SMT2CPR3                          00000003
SMT2CPR4                          00000004
SMT2CPR5                          00000005
SMT2CPR6                          00000006
SMT2CPR7                          00000007
SMT2CPR8                          00000000
SMT2CPR9                          00000001
SMT2CPRH                          00000DA2
SMT2CPRL                          00000DA1
SMT2CPRU                          00000DA3
SMT2CPRUP                         00000007
SMT2CPW                           00000DA4
SMT2CPW0                          00000000
SMT2CPW1                          00000001
SMT2CPW10                         00000002
SMT2CPW11                         00000003
SMT2CPW12                         00000004
SMT2CPW13                         00000005
SMT2CPW14                         00000006
SMT2CPW15                         00000007
SMT2CPW16                         00000000
SMT2CPW17                         00000001
SMT2CPW18                         00000002
SMT2CPW19                         00000003
SMT2CPW2                          00000002
SMT2CPW20                         00000004
SMT2CPW21                         00000005
SMT2CPW22                         00000006
SMT2CPW23                         00000007
SMT2CPW3                          00000003
SMT2CPW4                          00000004
SMT2CPW5                          00000005
SMT2CPW6                          00000006
SMT2CPW7                          00000007
SMT2CPW8                          00000000
MPASM 5.77                        WS2813.ASM   8-13-2018  13:36:12         PAGE 95


SYMBOL TABLE
  LABEL                             VALUE 

SMT2CPW9                          00000001
SMT2CPWH                          00000DA5
SMT2CPWL                          00000DA4
SMT2CPWU                          00000DA6
SMT2CPWUP                         00000006
SMT2CSEL0                         00000000
SMT2CSEL1                         00000001
SMT2CSEL2                         00000002
SMT2GO                            00000007
SMT2IE                            00000003
SMT2IF                            00000003
SMT2MODE0                         00000000
SMT2MODE1                         00000001
SMT2MODE2                         00000002
SMT2MODE3                         00000003
SMT2PR                            00000DA7
SMT2PR0                           00000000
SMT2PR1                           00000001
SMT2PR10                          00000002
SMT2PR11                          00000003
SMT2PR12                          00000004
SMT2PR13                          00000005
SMT2PR14                          00000006
SMT2PR15                          00000007
SMT2PR16                          00000000
SMT2PR17                          00000001
SMT2PR18                          00000002
SMT2PR19                          00000003
SMT2PR2                           00000002
SMT2PR20                          00000004
SMT2PR21                          00000005
SMT2PR22                          00000006
SMT2PR23                          00000007
SMT2PR3                           00000003
SMT2PR4                           00000004
SMT2PR5                           00000005
SMT2PR6                           00000006
SMT2PR7                           00000007
SMT2PR8                           00000000
SMT2PR9                           00000001
SMT2PRAIE                         00000004
SMT2PRAIF                         00000004
SMT2PRH                           00000DA8
SMT2PRL                           00000DA7
SMT2PRU                           00000DA9
SMT2PS0                           00000000
SMT2PS1                           00000001
SMT2PWAIE                         00000005
SMT2PWAIF                         00000005
SMT2REPEAT                        00000006
SMT2RESET                         00000005
SMT2SIG                           00000DAE
SMT2SIGPPS                        00000E2C
MPASM 5.77                        WS2813.ASM   8-13-2018  13:36:12         PAGE 96


SYMBOL TABLE
  LABEL                             VALUE 

SMT2SIGPPS0                       00000000
SMT2SIGPPS1                       00000001
SMT2SIGPPS2                       00000002
SMT2SIGPPS3                       00000003
SMT2SIGPPS4                       00000004
SMT2SSEL0                         00000000
SMT2SSEL1                         00000001
SMT2SSEL2                         00000002
SMT2SSEL3                         00000003
SMT2SSEL4                         00000004
SMT2STAT                          00000DAC
SMT2TMR                           00000D9E
SMT2TMR0                          00000000
SMT2TMR1                          00000001
SMT2TMR10                         00000002
SMT2TMR11                         00000003
SMT2TMR12                         00000004
SMT2TMR13                         00000005
SMT2TMR14                         00000006
SMT2TMR15                         00000007
SMT2TMR16                         00000000
SMT2TMR17                         00000001
SMT2TMR18                         00000002
SMT2TMR19                         00000003
SMT2TMR2                          00000002
SMT2TMR20                         00000004
SMT2TMR21                         00000005
SMT2TMR22                         00000006
SMT2TMR23                         00000007
SMT2TMR3                          00000003
SMT2TMR4                          00000004
SMT2TMR5                          00000005
SMT2TMR6                          00000006
SMT2TMR7                          00000007
SMT2TMR8                          00000000
SMT2TMR9                          00000001
SMT2TMRH                          00000D9F
SMT2TMRL                          00000D9E
SMT2TMRU                          00000DA0
SMT2TS                            00000002
SMT2WIN                           00000DAF
SMT2WINPPS                        00000E2D
SMT2WINPPS0                       00000000
SMT2WINPPS1                       00000001
SMT2WINPPS2                       00000002
SMT2WINPPS3                       00000003
SMT2WINPPS4                       00000004
SMT2WS                            00000001
SMT2WSEL0                         00000000
SMT2WSEL1                         00000001
SMT2WSEL2                         00000002
SMT2WSEL3                         00000003
SMT2WSEL4                         00000004
MPASM 5.77                        WS2813.ASM   8-13-2018  13:36:12         PAGE 97


SYMBOL TABLE
  LABEL                             VALUE 

SMTWINPPS0                        00000000
SMTWINPPS1                        00000001
SMTWINPPS2                        00000002
SMTWINPPS3                        00000003
SMTWINPPS4                        00000004
SP1BRG                            0000019B
SP1BRGH                           0000019C
SP1BRGL                           0000019B
SPBRG                             0000019B
SPBRG1                            0000019B
SPBRGH                            0000019C
SPBRGH1                           0000019C
SPBRGL                            0000019B
SPEN                              00000007
SPLLEN                            00000007
SPOL                              00000003
SREN                              00000005
SSEL0                             00000000
SSEL1                             00000001
SSEL2                             00000002
SSEL3                             00000003
SSEL4                             00000004
SSP1ADD                           00000212
SSP1ADD0                          00000000
SSP1ADD1                          00000001
SSP1ADD2                          00000002
SSP1ADD3                          00000003
SSP1ADD4                          00000004
SSP1ADD5                          00000005
SSP1ADD6                          00000006
SSP1ADD7                          00000007
SSP1BUF                           00000211
SSP1BUF0                          00000000
SSP1BUF1                          00000001
SSP1BUF2                          00000002
SSP1BUF3                          00000003
SSP1BUF4                          00000004
SSP1BUF5                          00000005
SSP1BUF6                          00000006
SSP1BUF7                          00000007
SSP1CON                           00000215
SSP1CON1                          00000215
SSP1CON2                          00000216
SSP1CON3                          00000217
SSP1IE                            00000003
SSP1IF                            00000003
SSP1MSK                           00000213
SSP1MSK0                          00000000
SSP1MSK1                          00000001
SSP1MSK2                          00000002
SSP1MSK3                          00000003
SSP1MSK4                          00000004
SSP1MSK5                          00000005
MPASM 5.77                        WS2813.ASM   8-13-2018  13:36:12         PAGE 98


SYMBOL TABLE
  LABEL                             VALUE 

SSP1MSK6                          00000006
SSP1MSK7                          00000007
SSP1STAT                          00000214
SSPADD                            00000212
SSPBUF                            00000211
SSPCLKPPS                         00000E20
SSPCLKPPS0                        00000000
SSPCLKPPS1                        00000001
SSPCLKPPS2                        00000002
SSPCLKPPS3                        00000003
SSPCLKPPS4                        00000004
SSPCON                            00000215
SSPCON1                           00000215
SSPCON2                           00000216
SSPCON3                           00000217
SSPDATPPS                         00000E21
SSPDATPPS0                        00000000
SSPDATPPS1                        00000001
SSPDATPPS2                        00000002
SSPDATPPS3                        00000003
SSPDATPPS4                        00000004
SSPEN                             00000005
SSPM0                             00000000
SSPM1                             00000001
SSPM2                             00000002
SSPM3                             00000003
SSPMSK                            00000213
SSPOV                             00000006
SSPSSPPS                          00000E22
SSPSSPPS0                         00000000
SSPSSPPS1                         00000001
SSPSSPPS2                         00000002
SSPSSPPS3                         00000003
SSPSSPPS4                         00000004
SSPSTAT                           00000214
START                             00000034
STATE                             00000002
STATUS                            00000003
STATUS_SHAD                       00000FE4
STKOVF                            00000007
STKPTR                            00000FED
STKUNF                            00000006
STP                               00000005
STPT0                             00000000
STPT1                             00000001
STPT10                            00000002
STPT11                            00000003
STPT12                            00000004
STPT13                            00000005
STPT14                            00000006
STPT2                             00000002
STPT3                             00000003
STPT4                             00000004
MPASM 5.77                        WS2813.ASM   8-13-2018  13:36:12         PAGE 99


SYMBOL TABLE
  LABEL                             VALUE 

STPT5                             00000005
STPT6                             00000006
STPT7                             00000007
STPT8                             00000000
STPT9                             00000001
STRA                              00000000
STRB                              00000001
STRC                              00000002
STRD                              00000003
SWDTEN                            00000000
SYNC                              00000004
T0CKIPPS                          00000E11
T0CKIPPS0                         00000000
T0CKIPPS1                         00000001
T0CKIPPS2                         00000002
T0CKIPPS3                         00000003
T0CKIPPS4                         00000004
T0CS                              00000005
T0IE                              00000005
T0IF                              00000002
T0SE                              00000004
T1CKIPPS                          00000E12
T1CKIPPS0                         00000000
T1CKIPPS1                         00000001
T1CKIPPS2                         00000002
T1CKIPPS3                         00000003
T1CKIPPS4                         00000004
T1CKPS0                           00000004
T1CKPS1                           00000005
T1CON                             00000018
T1GCON                            00000019
T1GGO_NOT_DONE                    00000003
T1GPOL                            00000006
T1GPPS                            00000E13
T1GPPS0                           00000000
T1GPPS1                           00000001
T1GPPS2                           00000002
T1GPPS3                           00000003
T1GPPS4                           00000004
T1GSPM                            00000004
T1GSS0                            00000000
T1GSS1                            00000001
T1GTM                             00000005
T1GVAL                            00000002
T2CKPOL                           00000006
T2CKPS0                           00000004
T2CKPS1                           00000005
T2CKPS2                           00000006
T2CKSYNC                          00000005
T2CLKCON                          0000001E
T2CON                             0000001C
T2CS0                             00000000
T2CS1                             00000001
MPASM 5.77                        WS2813.ASM   8-13-2018  13:36:12         PAGE 100


SYMBOL TABLE
  LABEL                             VALUE 

T2CS2                             00000002
T2CS3                             00000003
T2HLT                             0000001D
T2MODE0                           00000000
T2MODE1                           00000001
T2MODE2                           00000002
T2MODE3                           00000003
T2MODE4                           00000004
T2ON                              00000007
T2OUTPS0                          00000000
T2OUTPS1                          00000001
T2OUTPS2                          00000002
T2OUTPS3                          00000003
T2PPS                             00000E18
T2PPS0                            00000000
T2PPS1                            00000001
T2PPS2                            00000002
T2PPS3                            00000003
T2PPS4                            00000004
T2PR                              0000001B
T2PSYNC                           00000007
T2RSEL0                           00000000
T2RSEL1                           00000001
T2RSEL2                           00000002
T2RSEL3                           00000003
T2RST                             0000001F
T2TMR                             0000001A
T3CKIPPS                          00000E19
T3CKIPPS0                         00000000
T3CKIPPS1                         00000001
T3CKIPPS2                         00000002
T3CKIPPS3                         00000003
T3CKIPPS4                         00000004
T3CKPS0                           00000004
T3CKPS1                           00000005
T3CON                             00000495
T3GCON                            00000496
T3GGO_NOT_DONE                    00000003
T3GPOL                            00000006
T3GPPS                            00000E1A
T3GPPS0                           00000000
T3GPPS1                           00000001
T3GPPS2                           00000002
T3GPPS3                           00000003
T3GPPS4                           00000004
T3GSPM                            00000004
T3GSS0                            00000000
T3GSS1                            00000001
T3GTM                             00000005
T3GVAL                            00000002
T3SYNC                            00000002
T4CKPOL                           00000006
T4CKPS0                           00000004
MPASM 5.77                        WS2813.ASM   8-13-2018  13:36:12         PAGE 101


SYMBOL TABLE
  LABEL                             VALUE 

T4CKPS1                           00000005
T4CKPS2                           00000006
T4CKSYNC                          00000005
T4CLKCON                          00000417
T4CON                             00000415
T4CS0                             00000000
T4CS1                             00000001
T4CS2                             00000002
T4CS3                             00000003
T4HLT                             00000416
T4MODE0                           00000000
T4MODE1                           00000001
T4MODE2                           00000002
T4MODE3                           00000003
T4MODE4                           00000004
T4ON                              00000007
T4OUTPS0                          00000000
T4OUTPS1                          00000001
T4OUTPS2                          00000002
T4OUTPS3                          00000003
T4PPS                             00000E1B
T4PPS0                            00000000
T4PPS1                            00000001
T4PPS2                            00000002
T4PPS3                            00000003
T4PPS4                            00000004
T4PR                              00000414
T4PSYNC                           00000007
T4RSEL0                           00000000
T4RSEL1                           00000001
T4RSEL2                           00000002
T4RSEL3                           00000003
T4RST                             00000418
T4TMR                             00000413
T5CKIPPS                          00000E1C
T5CKIPPS0                         00000000
T5CKIPPS1                         00000001
T5CKIPPS2                         00000002
T5CKIPPS3                         00000003
T5CKIPPS4                         00000004
T5CKPS0                           00000004
T5CKPS1                           00000005
T5CON                             0000049C
T5GCON                            0000049D
T5GGO_NOT_DONE                    00000003
T5GPOL                            00000006
T5GPPS                            00000E1D
T5GPPS0                           00000000
T5GPPS1                           00000001
T5GPPS2                           00000002
T5GPPS3                           00000003
T5GPPS4                           00000004
T5GSPM                            00000004
MPASM 5.77                        WS2813.ASM   8-13-2018  13:36:12         PAGE 102


SYMBOL TABLE
  LABEL                             VALUE 

T5GSS0                            00000000
T5GSS1                            00000001
T5GTM                             00000005
T5GVAL                            00000002
T5SYNC                            00000002
T6CKPOL                           00000006
T6CKPS0                           00000004
T6CKPS1                           00000005
T6CKPS2                           00000006
T6CKSYNC                          00000005
T6CLKCON                          0000041E
T6CON                             0000041C
T6CS0                             00000000
T6CS1                             00000001
T6CS2                             00000002
T6CS3                             00000003
T6HLT                             0000041D
T6MODE0                           00000000
T6MODE1                           00000001
T6MODE2                           00000002
T6MODE3                           00000003
T6MODE4                           00000004
T6ON                              00000007
T6OUTPS0                          00000000
T6OUTPS1                          00000001
T6OUTPS2                          00000002
T6OUTPS3                          00000003
T6PPS                             00000E1E
T6PPS0                            00000000
T6PPS1                            00000001
T6PPS2                            00000002
T6PPS3                            00000003
T6PPS4                            00000004
T6PR                              0000041B
T6PSYNC                           00000007
T6RSEL0                           00000000
T6RSEL1                           00000001
T6RSEL2                           00000002
T6RSEL3                           00000003
T6RST                             0000041F
T6TMR                             0000041A
TMR0                              00000015
TMR0CS                            00000005
TMR0IE                            00000005
TMR0IF                            00000002
TMR0SE                            00000004
TMR1                              00000016
TMR1CS0                           00000006
TMR1CS1                           00000007
TMR1GE                            00000007
TMR1GIE                           00000007
TMR1GIF                           00000007
TMR1H                             00000017
MPASM 5.77                        WS2813.ASM   8-13-2018  13:36:12         PAGE 103


SYMBOL TABLE
  LABEL                             VALUE 

TMR1IE                            00000000
TMR1IF                            00000000
TMR1L                             00000016
TMR1ON                            00000000
TMR1_DELAY                        
TMR1_OFFSET                       
TMR2                              0000001A
TMR2AS                            00000004
TMR2IE                            00000001
TMR2IF                            00000001
TMR2ON                            00000007
TMR3CS0                           00000006
TMR3CS1                           00000007
TMR3GE                            00000007
TMR3GIE                           00000007
TMR3GIF                           00000007
TMR3H                             00000494
TMR3IE                            00000006
TMR3IF                            00000006
TMR3L                             00000493
TMR3ON                            00000000
TMR4                              00000413
TMR4AS                            00000005
TMR4IE                            00000001
TMR4IF                            00000001
TMR4ON                            00000007
TMR5CS0                           00000006
TMR5CS1                           00000007
TMR5GE                            00000007
TMR5GIE                           00000005
TMR5GIF                           00000005
TMR5H                             0000049B
TMR5IE                            00000004
TMR5IF                            00000004
TMR5L                             0000049A
TMR5ON                            00000000
TMR6                              0000041A
TMR6AS                            00000006
TMR6IE                            00000002
TMR6IF                            00000002
TMR6ON                            00000007
TOSH                              00000FEF
TOSL                              00000FEE
TRIGSEL0                          00000004
TRIGSEL1                          00000005
TRIGSEL2                          00000006
TRIGSEL3                          00000007
TRISA                             0000008C
TRISA0                            00000000
TRISA1                            00000001
TRISA2                            00000002
TRISA3                            00000003
TRISA4                            00000004
MPASM 5.77                        WS2813.ASM   8-13-2018  13:36:12         PAGE 104


SYMBOL TABLE
  LABEL                             VALUE 

TRISA5                            00000005
TRISC                             0000008E
TRISC0                            00000000
TRISC1                            00000001
TRISC2                            00000002
TRISC3                            00000003
TRISC4                            00000004
TRISC5                            00000005
TRMT                              00000001
TS                                00000002
TSEL0                             00000000
TSEL1                             00000001
TSEL2                             00000002
TSEL3                             00000003
TSEN                              00000005
TSRNG                             00000004
TUN0                              00000000
TUN1                              00000001
TUN2                              00000002
TUN3                              00000003
TUN4                              00000004
TUN5                              00000005
TX1REG                            0000019A
TX1STA                            0000019E
TX9                               00000006
TX9D                              00000000
TXEN                              00000005
TXIE                              00000004
TXIF                              00000004
TXREG                             0000019A
TXREG1                            0000019A
TXSTA                             0000019E
TXSTA1                            0000019E
UA                                00000001
VALID                             00000000
VREGCON                           00000197
VREGPM0                           00000000
VREGPM1                           00000001
W                                 00000000
WCOL                              00000007
WCOLOR                            00000129
WDATA                             0000012C
WDTCON0                           00000711
WDTCON1                           00000712
WDTCS0                            00000004
WDTCS1                            00000005
WDTCS2                            00000006
WDTPS0                            00000001
WDTPS1                            00000002
WDTPS2                            00000003
WDTPS3                            00000004
WDTPS4                            00000005
WDTPSCNT0                         00000000
MPASM 5.77                        WS2813.ASM   8-13-2018  13:36:12         PAGE 105


SYMBOL TABLE
  LABEL                             VALUE 

WDTPSCNT1                         00000001
WDTPSCNT10                        00000002
WDTPSCNT11                        00000003
WDTPSCNT12                        00000004
WDTPSCNT13                        00000005
WDTPSCNT14                        00000006
WDTPSCNT15                        00000007
WDTPSCNT16                        00000000
WDTPSCNT17                        00000001
WDTPSCNT2                         00000002
WDTPSCNT3                         00000003
WDTPSCNT4                         00000004
WDTPSCNT5                         00000005
WDTPSCNT6                         00000006
WDTPSCNT7                         00000007
WDTPSCNT8                         00000000
WDTPSCNT9                         00000001
WDTPSH                            00000714
WDTPSL                            00000713
WDTSEN                            00000000
WDTSTATE                          00000002
WDTTMR                            00000715
WDTTMR0                           00000003
WDTTMR1                           00000004
WDTTMR2                           00000005
WDTTMR3                           00000006
WDTTMR4                           00000007
WDTWINDOW0                        00000000
WDTWINDOW1                        00000001
WDTWINDOW2                        00000002
WINDOW0                           00000000
WINDOW1                           00000001
WINDOW2                           00000002
WPOL                              00000004
WPUA                              0000020C
WPUA0                             00000000
WPUA1                             00000001
WPUA2                             00000002
WPUA3                             00000003
WPUA4                             00000004
WPUA5                             00000005
WPUC                              0000020E
WPUC0                             00000000
WPUC1                             00000001
WPUC2                             00000002
WPUC3                             00000003
WPUC4                             00000004
WPUC5                             00000005
WR                                00000001
WREG                              00000009
WREG_SHAD                         00000FE5
WREN                              00000002
WRERR                             00000003
MPASM 5.77                        WS2813.ASM   8-13-2018  13:36:12         PAGE 106


SYMBOL TABLE
  LABEL                             VALUE 

WRITE_COUNT                       00000124
WS                                00000001
WS2813_PIN                        LATC4
WS2813_RESET                      00000125
WS2813_RESET_COPY                 00000127
WS2813_WRITE                      000004C7
WSEL0                             00000000
WSEL1                             00000001
WSEL2                             00000002
WSEL3                             00000003
WSEL4                             00000004
WUE                               00000001
XOR1                              00000001
XOR10                             00000002
XOR11                             00000003
XOR12                             00000004
XOR13                             00000005
XOR14                             00000006
XOR15                             00000007
XOR2                              00000002
XOR3                              00000003
XOR4                              00000004
XOR5                              00000005
XOR6                              00000006
XOR7                              00000007
XOR8                              00000000
XOR9                              00000001
Z                                 00000002
Z10                               00000000
Z11                               00000001
Z110                              00000002
Z111                              00000003
Z112                              00000004
Z113                              00000005
Z114                              00000006
Z115                              00000007
Z116                              00000000
Z12                               00000002
Z13                               00000003
Z14                               00000004
Z15                               00000005
Z16                               00000006
Z17                               00000007
Z18                               00000000
Z19                               00000001
Z20                               00000000
Z21                               00000001
Z210                              00000002
Z211                              00000003
Z212                              00000004
Z213                              00000005
Z214                              00000006
Z215                              00000007
MPASM 5.77                        WS2813.ASM   8-13-2018  13:36:12         PAGE 107


SYMBOL TABLE
  LABEL                             VALUE 

Z216                              00000000
Z22                               00000002
Z23                               00000003
Z24                               00000004
Z25                               00000005
Z26                               00000006
Z27                               00000007
Z28                               00000000
Z29                               00000001
ZCD1CON                           0000011C
ZCD1EN                            00000007
ZCD1INTN                          00000000
ZCD1INTP                          00000001
ZCD1OUT                           00000005
ZCD1POL                           00000004
ZCDIE                             00000004
ZCDIF                             00000004
Z_SHAD                            00000002
_BOREN_NSLEEP                     00003DFF
_BOREN_OFF                        000039FF
_BOREN_ON                         00003FFF
_BOREN_SBODEN                     00003BFF
_BORV_HI                          00003BFF
_BORV_LO                          00003FFF
_CLKOUTEN_OFF                     00003FFF
_CLKOUTEN_ON                      000037FF
_CONFIG1                          00008007
_CONFIG2                          00008008
_CONFIG3                          00008009
_CP_OFF                           00003FFF
_CP_ON                            00003F7F
_DEVID1                           00008006
_FCMEN_OFF                        00001FFF
_FCMEN_ON                         00003FFF
_FOSC_ECH                         00003FFF
_FOSC_ECL                         00003FFD
_FOSC_ECM                         00003FFE
_FOSC_HS                          00003FFA
_FOSC_INTOSC                      00003FFC
_IDLOC0                           00008000
_IDLOC1                           00008001
_IDLOC2                           00008002
_IDLOC3                           00008003
_IESO_OFF                         00002FFF
_IESO_ON                          00003FFF
_LPBOR_OFF                        00003FFF
_LPBOR_ON                         000037FF
_LVP_OFF                          00001FFF
_LVP_ON                           00003FFF
_MAIN_PROG_0044                   00000044
_MAIN_PROG_0054                   00000054
_MAIN_PROG_0064                   00000064
_MAIN_PROG_0074                   00000074
MPASM 5.77                        WS2813.ASM   8-13-2018  13:36:12         PAGE 108


SYMBOL TABLE
  LABEL                             VALUE 

_MAIN_PROG_0084                   00000084
_MAIN_PROG_0094                   00000094
_MAIN_PROG_00A4                   000000A4
_MAIN_PROG_00B4                   000000B4
_MAIN_PROG_00C4                   000000C4
_MAIN_PROG_00D4                   000000D4
_MAIN_PROG_00E4                   000000E4
_MAIN_PROG_00F4                   000000F4
_MAIN_PROG_0104                   00000104
_MAIN_PROG_0114                   00000114
_MAIN_PROG_0124                   00000124
_MAIN_PROG_0134                   00000134
_MAIN_PROG_0144                   00000144
_MAIN_PROG_0154                   00000154
_MAIN_PROG_0164                   00000164
_MAIN_PROG_0174                   00000174
_MAIN_PROG_0184                   00000184
_MAIN_PROG_0194                   00000194
_MAIN_PROG_01A4                   000001A4
_MAIN_PROG_01B4                   000001B4
_MAIN_PROG_01C4                   000001C4
_MAIN_PROG_01D4                   000001D4
_MAIN_PROG_01E4                   000001E4
_MAIN_PROG_01F4                   000001F4
_MAIN_PROG_0204                   00000204
_MAIN_PROG_0214                   00000214
_MAIN_PROG_0224                   00000224
_MAIN_PROG_0234                   00000234
_MAIN_PROG_0244                   00000244
_MAIN_PROG_0254                   00000254
_MAIN_PROG_0264                   00000264
_MAIN_PROG_0275                   00000275
_MAIN_PROG_0285                   00000285
_MAIN_PROG_0295                   00000295
_MAIN_PROG_02A5                   000002A5
_MAIN_PROG_02B5                   000002B5
_MAIN_PROG_02C5                   000002C5
_MAIN_PROG_02D5                   000002D5
_MAIN_PROG_02E5                   000002E5
_MAIN_PROG_02F5                   000002F5
_MAIN_PROG_0305                   00000305
_MAIN_PROG_0315                   00000315
_MAIN_PROG_0325                   00000325
_MAIN_PROG_0335                   00000335
_MAIN_PROG_0345                   00000345
_MAIN_PROG_0355                   00000355
_MAIN_PROG_0365                   00000365
_MAIN_PROG_0375                   00000375
_MAIN_PROG_0385                   00000385
_MAIN_PROG_0395                   00000395
_MAIN_PROG_03A5                   000003A5
_MAIN_PROG_03B5                   000003B5
_MAIN_PROG_03C5                   000003C5
MPASM 5.77                        WS2813.ASM   8-13-2018  13:36:12         PAGE 109


SYMBOL TABLE
  LABEL                             VALUE 

_MAIN_PROG_03D5                   000003D5
_MAIN_PROG_03E5                   000003E5
_MAIN_PROG_03F5                   000003F5
_MAIN_PROG_0405                   00000405
_MAIN_PROG_0415                   00000415
_MAIN_PROG_0425                   00000425
_MAIN_PROG_0435                   00000435
_MAIN_PROG_0445                   00000445
_MAIN_PROG_0455                   00000455
_MAIN_PROG_0465                   00000465
_MAIN_PROG_0475                   00000475
_MAIN_PROG_0485                   00000485
_MAIN_PROG_0495                   00000495
_MAIN_PROG_04A5                   000004A5
_MAIN_PROG_04B5                   000004B5
_MAIN_PROG_04C4                   000004C4
_MAIN_PROG_04C8                   000004C8
_MAIN_PROG_04D2                   000004D2
_MAIN_PROG_04DD                   000004DD
_MAIN_PROG_04E7                   000004E7
_MAIN_PROG_04F2                   000004F2
_MAIN_PROG_04FC                   000004FC
_MAIN_PROG_0507                   00000507
_MAIN_PROG_0511                   00000511
_MAIN_PROG_051C                   0000051C
_MAIN_PROG_0526                   00000526
_MAIN_PROG_0531                   00000531
_MAIN_PROG_053B                   0000053B
_MAIN_PROG_0546                   00000546
_MAIN_PROG_0550                   00000550
_MAIN_PROG_055B                   0000055B
_MAIN_PROG_0565                   00000565
_MAIN_PROG_0570                   00000570
_MAIN_PROG_057A                   0000057A
_MAIN_PROG_0585                   00000585
_MAIN_PROG_058F                   0000058F
_MAIN_PROG_059A                   0000059A
_MAIN_PROG_05A4                   000005A4
_MAIN_PROG_05AF                   000005AF
_MAIN_PROG_05B9                   000005B9
_MAIN_PROG_05C4                   000005C4
_MAIN_PROG_05CE                   000005CE
_MAIN_PROG_05D9                   000005D9
_MAIN_PROG_05E3                   000005E3
_MAIN_PROG_05EE                   000005EE
_MAIN_PROG_05F8                   000005F8
_MAIN_PROG_0603                   00000603
_MAIN_PROG_060D                   0000060D
_MAIN_PROG_0618                   00000618
_MAIN_PROG_0622                   00000622
_MAIN_PROG_062D                   0000062D
_MAIN_PROG_0637                   00000637
_MAIN_PROG_0642                   00000642
MPASM 5.77                        WS2813.ASM   8-13-2018  13:36:12         PAGE 110


SYMBOL TABLE
  LABEL                             VALUE 

_MAIN_PROG_064C                   0000064C
_MAIN_PROG_0657                   00000657
_MAIN_PROG_0661                   00000661
_MAIN_PROG_066C                   0000066C
_MAIN_PROG_0676                   00000676
_MAIN_PROG_0681                   00000681
_MAIN_PROG_068B                   0000068B
_MAIN_PROG_0696                   00000696
_MAIN_PROG_06A0                   000006A0
_MAIN_PROG_06AB                   000006AB
_MAIN_PROG_06B5                   000006B5
_MCLRE_OFF                        00003FBF
_MCLRE_ON                         00003FFF
_PLLEN_OFF                        00003EFF
_PLLEN_ON                         00003FFF
_PPS1WAY_OFF                      00003FFB
_PPS1WAY_ON                       00003FFF
_PWRTE_OFF                        00003FFF
_PWRTE_ON                         00003FDF
_STVREN_OFF                       00003DFF
_STVREN_ON                        00003FFF
_WDTCCS_LFINTOSC                  000007FF
_WDTCCS_MFINTOSC                  00000FFF
_WDTCCS_SWC                       00003FFF
_WDTCPS_WDTCPS0                   00003FE0
_WDTCPS_WDTCPS1                   00003FE1
_WDTCPS_WDTCPS10                  00003FF0
_WDTCPS_WDTCPS11                  00003FF1
_WDTCPS_WDTCPS12                  00003FF2
_WDTCPS_WDTCPS1F                  00003FFF
_WDTCPS_WDTCPS2                   00003FE2
_WDTCPS_WDTCPS3                   00003FE3
_WDTCPS_WDTCPS4                   00003FE4
_WDTCPS_WDTCPS5                   00003FE5
_WDTCPS_WDTCPS6                   00003FE6
_WDTCPS_WDTCPS7                   00003FE7
_WDTCPS_WDTCPS8                   00003FE8
_WDTCPS_WDTCPS9                   00003FE9
_WDTCPS_WDTCPSA                   00003FEA
_WDTCPS_WDTCPSB                   00003FEB
_WDTCPS_WDTCPSC                   00003FEC
_WDTCPS_WDTCPSD                   00003FED
_WDTCPS_WDTCPSE                   00003FEE
_WDTCPS_WDTCPSF                   00003FEF
_WDTCWS_WDTCWS100                 00003EFF
_WDTCWS_WDTCWS125                 000038FF
_WDTCWS_WDTCWS25                  000039FF
_WDTCWS_WDTCWS375                 00003AFF
_WDTCWS_WDTCWS50                  00003BFF
_WDTCWS_WDTCWS625                 00003CFF
_WDTCWS_WDTCWS75                  00003DFF
_WDTCWS_WDTCWSSW                  00003FFF
_WDTE_NSLEEP                      00003FDF
MPASM 5.77                        WS2813.ASM   8-13-2018  13:36:12         PAGE 111


SYMBOL TABLE
  LABEL                             VALUE 

_WDTE_OFF                         00003F9F
_WDTE_ON                          00003FFF
_WDTE_SWDTEN                      00003FBF
_WRT_ALL                          00003FFC
_WRT_BOOT                         00003FFE
_WRT_HALF                         00003FFD
_WRT_OFF                          00003FFF
_ZCD_OFF                          00003FFF
_ZCD_ON                           00003F7F
__16F1615                         00000001
d0                                00000000

Errors   :     0
Warnings :     0 reported,     0 suppressed
Messages :   117 reported,     0 suppressed

