MPASM 5.77                        WS2813.ASM   8-13-2018  12:11:19         PAGE  1


LOC  OBJECT CODE     LINE SOURCE TEXT
  VALUE

                      00001 ;*******************************************************************************
                      00002 ;
                      00003 ; Program: WS2813
                      00004 ; Author: Paul Wood
                      00005 ; Date Created: 06/30/2018 5:40PM
                      00006 ; Purpose: To display patterns on WS2813 based RGB LED strip
                      00007 ;
                      00008 ;*******************************************************************************
                      00009 ;
                      00010 ; Program Hierarchy:
                      00011 ;
                      00012 ;
                      00013 ;*******************************************************************************
                      00014 ;                              CONFIGURATION BITS
                      00015 ;*******************************************************************************
                      00016  list   R=DEC
                      00017 #include p16f1615.inc
                      00001         LIST
                      00002 
                      00003 ;==========================================================================
                      00004 ; Build date : Nov 22 2017
                      00005 ;  MPASM PIC16F1615 processor include
                      00006 ; 
                      00007 ;  (c) Copyright 1999-2017 Microchip Technology, All rights reserved
                      00008 ;==========================================================================
                      00009 
                      05119         LIST
                      00018 
                      00019 ; CONFIG1
                      00020 ; __config 0xFFFC
8007   3FFC           00021  __CONFIG _CONFIG1, _FOSC_INTOSC & _PWRTE_OFF & _MCLRE_ON & _CP_OFF & _BOREN_ON & _CLKOUTEN_OFF & _IESO_
                            ON & _FCMEN_ON
                      00022 ; CONFIG2
                      00023 ; __config 0xFFFF
8008   3FFF           00024  __CONFIG _CONFIG2, _WRT_OFF & _PPS1WAY_ON & _ZCD_OFF & _PLLEN_ON & _STVREN_ON & _BORV_LO & _LPBOR_OFF &
                             _LVP_ON
                      00025 ; CONFIG3
                      00026 ; __config 0xFF9F
8009   3F9F           00027  __CONFIG _CONFIG3, _WDTCPS_WDTCPS1F & _WDTE_OFF & _WDTCWS_WDTCWSSW & _WDTCCS_SWC
                      00028 
                      00029  
                      00030 
                      00031 ;*******************************************************************************
                      00032 ;                           VARIABLE DEFINITIONS
                      00033 ;*******************************************************************************
                      00034 #DEFINE WS2813_PIN      LATC4       ; MUST use PORTC
                      00035 #DEFINE NUM_LEDS        60          ; number of LEDs in strip
                      00036 #DEFINE ADC_ANSEL       ANSA2
                      00037 #DEFINE RED_SPECTRUM_CH         1
                      00038 #DEFINE GREEN_SPECTRUM_CH       3
                      00039 #DEFINE BLUE_SPECTRUM_CH        5
                      00040 #DEFINE MSGEQ7_READ_PIN         TRISA2
                      00041 #DEFINE MSGEQ7_ANSEL_PIN        ANSA2
MPASM 5.77                        WS2813.ASM   8-13-2018  12:11:19         PAGE  2


LOC  OBJECT CODE     LINE SOURCE TEXT
  VALUE

                      00042 #DEFINE MSGEQ7_WPU_PIN          WPUA2
                      00043 #DEFINE MSGEQ7_STROBE_PIN       LATC3
                      00044 #DEFINE MSGEQ7_RESET_PIN        LATC5
                      00045 
                      00046 VARS    UDATA   0x120
0120                  00047 BCOUNT          RES 1           ; Bit count- for use for when 
                      00048                                 ; displaying a color in ws2813_write
0121                  00049 SHIFTNUM        RES 2
0123                  00050 FRAMECOUNT      RES 1
0124                  00051 WRITE_COUNT     RES 1           ; reserve 1byte for write counter
0125                  00052 WS2813_RESET    RES 2           ; to save operations, this works as two, nested   
0127                  00053 WS2813_RESET_COPY   RES 2       ; for loops. First byte is for outer loop, 
                      00054                                 ; second byte is for inner loop; = 256^2
0129                  00055 WCOLOR  RES 3                   ; reserve 24bits for RGB color (IN G,R,B FORMAT)        
012C                  00056 WDATA   RES 2
                      00057    
                      00058         
Message[313]: CBLOCK constants will start with a value of 0.
                      00059         cblock
  00000000            00060         d0
                      00061         endc
                      00062         
                      00063 ;*******************************************************************************
                      00064 ;                                VECTORS
                      00065 ;******************************************************************************* 
                      00066         
                      00067 RES_VECT  CODE    0x0000            ; processor reset vector
0000   3180           00068     PAGESEL START
0001   2???           00069     GOTO    START                   ; go to beginning of program     
                      00070 
                      00071 ;*******************************************************************************
                      00072 ;                             MACRO DEFINITIONS
                      00073 ;*******************************************************************************
                      00074 MOVLF   MACRO   DEST, LIT
                      00075         BANKSEL DEST
                      00076         MOVLW   LIT
                      00077         MOVWF   DEST
                      00078         ENDM
                      00079         
                      00080 MOVLF16 MACRO   DEST,LIT
                      00081         BANKSEL LIT
                      00082         MOVLW   LIT & B'0000000011111111'
                      00083         BANKSEL DEST
                      00084         MOVWF   DEST
                      00085         BANKSEL LIT
                      00086         MOVLW   LIT >> 8
                      00087         BANKSEL DEST
                      00088         MOVWF   DEST+1
                      00089         ENDM
                      00090         
                      00091 BCZ     MACRO    
                      00092         BCF     STATUS, Z
                      00093         ENDM
MPASM 5.77                        WS2813.ASM   8-13-2018  12:11:19         PAGE  3


LOC  OBJECT CODE     LINE SOURCE TEXT
  VALUE

                      00094         
                      00095 CPYFF   MACRO   FROM,TO
                      00096         MOVF    FROM, W
                      00097         MOVWF   TO
                      00098         ENDM
                      00099         
                      00100 BITHIGH MACRO   
                      00101         BSF     LATC, WS2813_PIN
                      00102         NOP
                      00103         NOP
                      00104         NOP
                      00105         NOP
                      00106         NOP
                      00107         NOP
                      00108         NOP
                      00109         BCF     LATC, WS2813_PIN
                      00110         ENDM
                      00111         
                      00112 BITLOW  MACRO
                      00113         BSF     LATC, WS2813_PIN
                      00114         NOP
                      00115         NOP
                      00116         BCF     LATC, WS2813_PIN
                      00117         NOP
                      00118         NOP
                      00119         NOP
                      00120         NOP
                      00121         NOP
                      00122         ENDM
                      00123         
                      00124 READ_ADC    MACRO
                      00125         BANKSEL ADCON0
                      00126         BSF     ADCON0, ADGO
                      00127         BTFSC   ADCON0, ADGO
                      00128          GOTO   $-1
                      00129         BANKSEL ADRESH
                      00130         MOVF    ADRESH, W
                      00131         BANKSEL WDATA
                      00132         MOVWF   WDATA+1
                      00133         BANKSEL ADRESL
                      00134         MOVF    ADRESL
                      00135         BANKSEL WDATA
                      00136         MOVWF   WDATA
                      00137         ENDM
                      00138         
                      00139         
                      00140 MSGEQ7_RESET    MACRO
                      00141         BANKSEL LATC
                      00142         BSF     LATC, MSGEQ7_RESET_PIN
                      00143         BCF     LATC, MSGEQ7_RESET_PIN
                      00144         ENDM
                      00145         
                      00146 TMR1_OFFSET MACRO   LIT
MPASM 5.77                        WS2813.ASM   8-13-2018  12:11:19         PAGE  4


LOC  OBJECT CODE     LINE SOURCE TEXT
  VALUE

                      00147         BANKSEL TMR1H
                      00148         MOVLF   TMR1H, high LIT
                      00149         MOVLF   TMR1L, low LIT
                      00150         ENDM
                      00151         
                      00152 MSGEQ7_STROBE_LOW MACRO
                      00153         BANKSEL LATC
                      00154         BCF     LATC, MSGEQ7_STROBE_PIN
                      00155         
                      00156         TMR1_DELAY 65104
                      00157         ENDM
                      00158         
                      00159 MSGEQ7_STROBE_HIGH  MACRO
                      00160         BANKSEL LATC
                      00161         BSF     LATC, MSGEQ7_STROBE_PIN
                      00162         
                      00163         TMR1_DELAY 655408
                      00164         
                      00165         BANKSEL LATC
                      00166         ENDM
                      00167 
                      00168 MSGEQ7_STROBE   MACRO
                      00169         MSGEQ7_STROBE_HIGH
                      00170         MSGEQ7_STROBE_LOW
                      00171         ENDM
                      00172         
                      00173         
                      00174 READ_SETTLE MACRO
                      00175         TMR1_DELAY 65232
                      00176         ENDM
                      00177         
                      00178 TMR1_DELAY  MACRO   LIT
                      00179         TMR1_OFFSET LIT
                      00180         BANKSEL T1CON
                      00181         BSF     T1CON, TMR1ON
                      00182         BANKSEL PIR1
                      00183         BTFSS   PIR1, TMR1IF
                      00184          GOTO $-1
                      00185         BANKSEL T1CON
                      00186         BCF     T1CON, TMR1ON
                      00187         BANKSEL PIR1
                      00188         BCF     PIR1, TMR1IF
                      00189         ENDM
                      00190         
                      00191         
                      00192 ACQ_DELAY   MACRO
                      00193    LOCAL    ACQ
                      00194    MOVLW    0x0E
                      00195 ACQ
                      00196     DECFSZ  WREG, W
                      00197     GOTO    ACQ
                      00198    ENDM
                      00199    
MPASM 5.77                        WS2813.ASM   8-13-2018  12:11:19         PAGE  5


LOC  OBJECT CODE     LINE SOURCE TEXT
  VALUE

                      00200 MOV16   MACRO   SRC, DST
                      00201         BANKSEL SRC
                      00202         MOVF    SRC,W
                      00203         BANKSEL DST
                      00204         MOVWF   DST
                      00205         BANKSEL SRC
                      00206         MOVF    SRC+1,W
                      00207         BANKSEL DST
                      00208         MOVWF   DST+1
                      00209         ENDM
                      00210 ;*******************************************************************************
                      00211 ;                         INTERRUPT SERVICE ROUTINE
                      00212 ;*******************************************************************************
                      00213      
                      00214 ; TODO
                      00215         
                      00216 ;*******************************************************************************
                      00217 ;                              INITIALIZATION
                      00218 ;*******************************************************************************
                      00219 MAIN_PROG CODE                      ; let linker place main program
                      00220  
0000                  00221 INITIAL:
                      00222     ;PORT CONFIG
0000   0022           00223     BANKSEL LATA
Message[302]: Register in operand not in bank 0.  Ensure that bank bits are correct.
0001   150C           00224     BSF     LATA, MSGEQ7_READ_PIN
0002   0023           00225     BANKSEL ANSELA
Message[302]: Register in operand not in bank 0.  Ensure that bank bits are correct.
0003   150C           00226     BSF     ANSELA, MSGEQ7_ANSEL_PIN
0004   0024           00227     BANKSEL WPUA
Message[302]: Register in operand not in bank 0.  Ensure that bank bits are correct.
0005   150C           00228     BSF     WPUA, MSGEQ7_WPU_PIN
                      00229     
                      00230     MOVLF   PORTC, 0X00             ; set PORTC LOW
0006   0020               M         BANKSEL PORTC
0007   3000               M         MOVLW   0X00
0008   008E               M         MOVWF   PORTC
0009   0021           00231     BANKSEL TRISC
Message[302]: Register in operand not in bank 0.  Ensure that bank bits are correct.
000A   120E           00232     BCF     TRISC, WS2813_PIN       ; set WS2813_PIN as the output pin for serial data
Message[302]: Register in operand not in bank 0.  Ensure that bank bits are correct.
000B   118E           00233     BCF     TRISC, MSGEQ7_STROBE_PIN
Message[302]: Register in operand not in bank 0.  Ensure that bank bits are correct.
000C   128E           00234     BCF     TRISC, MSGEQ7_RESET_PIN
                      00235     MOVLF   SLRCONC, 0X00           ; allow for maximum slew rate
000D   0026               M         BANKSEL SLRCONC
000E   3000               M         MOVLW   0X00
Message[302]: Register in operand not in bank 0.  Ensure that bank bits are correct.
000F   008E               M         MOVWF   SLRCONC
Message[302]: Register in operand not in bank 0.  Ensure that bank bits are correct.
0010   160E           00236     BSF     HIDRVC, HIDC4           ; enable high current drive for C4
                      00237     
                      00238     
MPASM 5.77                        WS2813.ASM   8-13-2018  12:11:19         PAGE  6


LOC  OBJECT CODE     LINE SOURCE TEXT
  VALUE

                      00239     
0011   0021           00240     BANKSEL OSCCON
                      00241     MOVLF   OSCCON, B'01110000'     ; set HS internal clock to 8MHz
0012   0021               M         BANKSEL OSCCON
0013   3070               M         MOVLW   B'01110000'
Message[302]: Register in operand not in bank 0.  Ensure that bank bits are correct.
0014   0099               M         MOVWF   OSCCON
                      00242     ;CALL    DELAY
Message[302]: Register in operand not in bank 0.  Ensure that bank bits are correct.
0015   1799           00243     BSF     OSCCON, SPLLEN          ; Kick in 4X PLL
                      00244     
                      00245     
0016   002?           00246     BANKSEL WCOLOR                  ; initalize COLOR variable to solid green
                      00247     MOVLF   WCOLOR, 0x00            ; green = 255
0017   002?               M         BANKSEL WCOLOR
0018   3000               M         MOVLW   0x00
0019   00??               M         MOVWF   WCOLOR
                      00248     MOVLF   WCOLOR+1, 0xFF          ; red = 0
001A   002?               M         BANKSEL WCOLOR+1
001B   30FF               M         MOVLW   0xFF
001C   00??               M         MOVWF   WCOLOR+1
                      00249     MOVLF   WCOLOR+2, 0x00          ; blue = 0
001D   002?               M         BANKSEL WCOLOR+2
001E   3000               M         MOVLW   0x00
001F   00??               M         MOVWF   WCOLOR+2
                      00250     
                      00251     MOVLF   WS2813_RESET, 30        ; Nol * Nil = (Ntot - 7) / 20
0020   002?               M         BANKSEL WS2813_RESET
0021   301E               M         MOVLW   30
0022   00??               M         MOVWF   WS2813_RESET
                      00252     MOVLF   WS2813_RESET+1, 50      ; Ntot = (Tdelay * Fosc)
0023   002?               M         BANKSEL WS2813_RESET+1
0024   3032               M         MOVLW   50
0025   00??               M         MOVWF   WS2813_RESET+1
                      00253     
                      00254     MOVLF   FRAMECOUNT, 30
0026   002?               M         BANKSEL FRAMECOUNT
0027   301E               M         MOVLW   30
0028   00??               M         MOVWF   FRAMECOUNT
                      00255   
                      00256     
                      00257 ;ADC CONFIG
0029   0021           00258     BANKSEL ADCON1
                      00259     MOVLF   ADCON1, b'11000000'         ; right justified, Fosc/2, VDD ref
002A   0021               M         BANKSEL ADCON1
002B   30C0               M         MOVLW   b'11000000'
Message[302]: Register in operand not in bank 0.  Ensure that bank bits are correct.
002C   009E               M         MOVWF   ADCON1
                      00260     MOVLF   ADCON0, b'00001001'         ; enable and set output channel to AN2
002D   0021               M         BANKSEL ADCON0
002E   3009               M         MOVLW   b'00001001'
Message[302]: Register in operand not in bank 0.  Ensure that bank bits are correct.
002F   009D               M         MOVWF   ADCON0
MPASM 5.77                        WS2813.ASM   8-13-2018  12:11:19         PAGE  7


LOC  OBJECT CODE     LINE SOURCE TEXT
  VALUE

                      00261     
                      00262 ;TMR1
0030   0020           00263     BANKSEL T1CON
                      00264     MOVLF   T1CON, b'01100000'
0031   0020               M         BANKSEL T1CON
0032   3060               M         MOVLW   b'01100000'
0033   0098               M         MOVWF   T1CON
0034   0021           00265     BANKSEL PIE1
Message[302]: Register in operand not in bank 0.  Ensure that bank bits are correct.
0035   1410           00266     BSF     PIE1, TMR1IE
                      00267     
                      00268     
                      00269     
                      00270     
                      00271     
0036   0008           00272     RETURN    
                      00273         
                      00274 ;*******************************************************************************
                      00275 ;                                   MAIN
                      00276 ;*******************************************************************************
0037                  00277 START:      
0037   2???           00278     CALL    INITIAL             
                      00279 
0038                  00280 RENDER_LOOP:
                      00281     MSGEQ7_RESET
0038   0022               M         BANKSEL LATC
Message[302]: Register in operand not in bank 0.  Ensure that bank bits are correct.
0039   168E               M         BSF     LATC, MSGEQ7_RESET_PIN
Message[302]: Register in operand not in bank 0.  Ensure that bank bits are correct.
003A   128E               M         BCF     LATC, MSGEQ7_RESET_PIN
                      00282 ;    
                      00283 ;;RED - FIRST BAND
                      00284     MSGEQ7_STROBE
                          M         MSGEQ7_STROBE_HIGH
003B   0022               M         BANKSEL LATC
Message[302]: Register in operand not in bank 0.  Ensure that bank bits are correct.
003C   158E               M         BSF     LATC, MSGEQ7_STROBE_PIN
                          M         
                          M         TMR1_DELAY 655408
                          M         TMR1_OFFSET 655408
003D   0020               M         BANKSEL TMR1H
                          M         MOVLF   TMR1H, high 655408
003E   0020               M         BANKSEL TMR1H
Message[311]: Operand of HIGH operator was larger than H'FFFF'.
003F   3000               M         MOVLW   high 655408
0040   0097               M         MOVWF   TMR1H
                          M         MOVLF   TMR1L, low 655408
0041   0020               M         BANKSEL TMR1L
0042   3030               M         MOVLW   low 655408
0043   0096               M         MOVWF   TMR1L
0044   0020               M         BANKSEL T1CON
0045   1418               M         BSF     T1CON, TMR1ON
0046   0020               M         BANKSEL PIR1
MPASM 5.77                        WS2813.ASM   8-13-2018  12:11:19         PAGE  8


LOC  OBJECT CODE     LINE SOURCE TEXT
  VALUE

0047   1C10               M         BTFSS   PIR1, TMR1IF
0048   2???               M          GOTO $-1
0049   0020               M         BANKSEL T1CON
004A   1018               M         BCF     T1CON, TMR1ON
004B   0020               M         BANKSEL PIR1
004C   1010               M         BCF     PIR1, TMR1IF
                          M         
004D   0022               M         BANKSEL LATC
                          M         MSGEQ7_STROBE_LOW
004E   0022               M         BANKSEL LATC
Message[302]: Register in operand not in bank 0.  Ensure that bank bits are correct.
004F   118E               M         BCF     LATC, MSGEQ7_STROBE_PIN
                          M         
                          M         TMR1_DELAY 65104
                          M         TMR1_OFFSET 65104
0050   0020               M         BANKSEL TMR1H
                          M         MOVLF   TMR1H, high 65104
0051   0020               M         BANKSEL TMR1H
0052   30FE               M         MOVLW   high 65104
0053   0097               M         MOVWF   TMR1H
                          M         MOVLF   TMR1L, low 65104
0054   0020               M         BANKSEL TMR1L
0055   3050               M         MOVLW   low 65104
0056   0096               M         MOVWF   TMR1L
0057   0020               M         BANKSEL T1CON
0058   1418               M         BSF     T1CON, TMR1ON
0059   0020               M         BANKSEL PIR1
005A   1C10               M         BTFSS   PIR1, TMR1IF
005B   2???               M          GOTO $-1
005C   0020               M         BANKSEL T1CON
005D   1018               M         BCF     T1CON, TMR1ON
005E   0020               M         BANKSEL PIR1
005F   1010               M         BCF     PIR1, TMR1IF
                      00285     READ_SETTLE
                          M         TMR1_DELAY 65232
                          M         TMR1_OFFSET 65232
0060   0020               M         BANKSEL TMR1H
                          M         MOVLF   TMR1H, high 65232
0061   0020               M         BANKSEL TMR1H
0062   30FE               M         MOVLW   high 65232
0063   0097               M         MOVWF   TMR1H
                          M         MOVLF   TMR1L, low 65232
0064   0020               M         BANKSEL TMR1L
0065   30D0               M         MOVLW   low 65232
0066   0096               M         MOVWF   TMR1L
0067   0020               M         BANKSEL T1CON
0068   1418               M         BSF     T1CON, TMR1ON
0069   0020               M         BANKSEL PIR1
006A   1C10               M         BTFSS   PIR1, TMR1IF
006B   2???               M          GOTO $-1
006C   0020               M         BANKSEL T1CON
006D   1018               M         BCF     T1CON, TMR1ON
006E   0020               M         BANKSEL PIR1
MPASM 5.77                        WS2813.ASM   8-13-2018  12:11:19         PAGE  9


LOC  OBJECT CODE     LINE SOURCE TEXT
  VALUE

006F   1010               M         BCF     PIR1, TMR1IF
                      00286     READ_ADC
0070   0021               M         BANKSEL ADCON0
Message[302]: Register in operand not in bank 0.  Ensure that bank bits are correct.
0071   149D               M         BSF     ADCON0, ADGO
Message[302]: Register in operand not in bank 0.  Ensure that bank bits are correct.
0072   189D               M         BTFSC   ADCON0, ADGO
0073   2???               M          GOTO   $-1
0074   0021               M         BANKSEL ADRESH
Message[302]: Register in operand not in bank 0.  Ensure that bank bits are correct.
0075   081C               M         MOVF    ADRESH, W
0076   002?               M         BANKSEL WDATA
0077   00??               M         MOVWF   WDATA+1
0078   0021               M         BANKSEL ADRESL
Message[305]: Using default destination of 1 (file).
Message[302]: Register in operand not in bank 0.  Ensure that bank bits are correct.
0079   089B               M         MOVF    ADRESL
007A   002?               M         BANKSEL WDATA
007B   00??               M         MOVWF   WDATA
007C   3002           00287     MOVLW   2
007D   2???           00288     CALL    RSHIFT16
                      00289     CPYFF   WDATA, WCOLOR+1
007E   08??               M         MOVF    WDATA, W
007F   00??               M         MOVWF   WCOLOR+1
                      00290     
                      00291 ;GREEN - THIRD BAND
                      00292     READ_SETTLE
                          M         TMR1_DELAY 65232
                          M         TMR1_OFFSET 65232
0080   0020               M         BANKSEL TMR1H
                          M         MOVLF   TMR1H, high 65232
0081   0020               M         BANKSEL TMR1H
0082   30FE               M         MOVLW   high 65232
0083   0097               M         MOVWF   TMR1H
                          M         MOVLF   TMR1L, low 65232
0084   0020               M         BANKSEL TMR1L
0085   30D0               M         MOVLW   low 65232
0086   0096               M         MOVWF   TMR1L
0087   0020               M         BANKSEL T1CON
0088   1418               M         BSF     T1CON, TMR1ON
0089   0020               M         BANKSEL PIR1
008A   1C10               M         BTFSS   PIR1, TMR1IF
008B   2???               M          GOTO $-1
008C   0020               M         BANKSEL T1CON
008D   1018               M         BCF     T1CON, TMR1ON
008E   0020               M         BANKSEL PIR1
008F   1010               M         BCF     PIR1, TMR1IF
                      00293     MSGEQ7_STROBE
                          M         MSGEQ7_STROBE_HIGH
0090   0022               M         BANKSEL LATC
Message[302]: Register in operand not in bank 0.  Ensure that bank bits are correct.
0091   158E               M         BSF     LATC, MSGEQ7_STROBE_PIN
                          M         
MPASM 5.77                        WS2813.ASM   8-13-2018  12:11:19         PAGE 10


LOC  OBJECT CODE     LINE SOURCE TEXT
  VALUE

                          M         TMR1_DELAY 655408
                          M         TMR1_OFFSET 655408
0092   0020               M         BANKSEL TMR1H
                          M         MOVLF   TMR1H, high 655408
0093   0020               M         BANKSEL TMR1H
Message[311]: Operand of HIGH operator was larger than H'FFFF'.
0094   3000               M         MOVLW   high 655408
0095   0097               M         MOVWF   TMR1H
                          M         MOVLF   TMR1L, low 655408
0096   0020               M         BANKSEL TMR1L
0097   3030               M         MOVLW   low 655408
0098   0096               M         MOVWF   TMR1L
0099   0020               M         BANKSEL T1CON
009A   1418               M         BSF     T1CON, TMR1ON
009B   0020               M         BANKSEL PIR1
009C   1C10               M         BTFSS   PIR1, TMR1IF
009D   2???               M          GOTO $-1
009E   0020               M         BANKSEL T1CON
009F   1018               M         BCF     T1CON, TMR1ON
00A0   0020               M         BANKSEL PIR1
00A1   1010               M         BCF     PIR1, TMR1IF
                          M         
00A2   0022               M         BANKSEL LATC
                          M         MSGEQ7_STROBE_LOW
00A3   0022               M         BANKSEL LATC
Message[302]: Register in operand not in bank 0.  Ensure that bank bits are correct.
00A4   118E               M         BCF     LATC, MSGEQ7_STROBE_PIN
                          M         
                          M         TMR1_DELAY 65104
                          M         TMR1_OFFSET 65104
00A5   0020               M         BANKSEL TMR1H
                          M         MOVLF   TMR1H, high 65104
00A6   0020               M         BANKSEL TMR1H
00A7   30FE               M         MOVLW   high 65104
00A8   0097               M         MOVWF   TMR1H
                          M         MOVLF   TMR1L, low 65104
00A9   0020               M         BANKSEL TMR1L
00AA   3050               M         MOVLW   low 65104
00AB   0096               M         MOVWF   TMR1L
00AC   0020               M         BANKSEL T1CON
00AD   1418               M         BSF     T1CON, TMR1ON
00AE   0020               M         BANKSEL PIR1
00AF   1C10               M         BTFSS   PIR1, TMR1IF
00B0   2???               M          GOTO $-1
00B1   0020               M         BANKSEL T1CON
00B2   1018               M         BCF     T1CON, TMR1ON
00B3   0020               M         BANKSEL PIR1
00B4   1010               M         BCF     PIR1, TMR1IF
                      00294     MSGEQ7_STROBE
                          M         MSGEQ7_STROBE_HIGH
00B5   0022               M         BANKSEL LATC
Message[302]: Register in operand not in bank 0.  Ensure that bank bits are correct.
00B6   158E               M         BSF     LATC, MSGEQ7_STROBE_PIN
MPASM 5.77                        WS2813.ASM   8-13-2018  12:11:19         PAGE 11


LOC  OBJECT CODE     LINE SOURCE TEXT
  VALUE

                          M         
                          M         TMR1_DELAY 655408
                          M         TMR1_OFFSET 655408
00B7   0020               M         BANKSEL TMR1H
                          M         MOVLF   TMR1H, high 655408
00B8   0020               M         BANKSEL TMR1H
Message[311]: Operand of HIGH operator was larger than H'FFFF'.
00B9   3000               M         MOVLW   high 655408
00BA   0097               M         MOVWF   TMR1H
                          M         MOVLF   TMR1L, low 655408
00BB   0020               M         BANKSEL TMR1L
00BC   3030               M         MOVLW   low 655408
00BD   0096               M         MOVWF   TMR1L
00BE   0020               M         BANKSEL T1CON
00BF   1418               M         BSF     T1CON, TMR1ON
00C0   0020               M         BANKSEL PIR1
00C1   1C10               M         BTFSS   PIR1, TMR1IF
00C2   2???               M          GOTO $-1
00C3   0020               M         BANKSEL T1CON
00C4   1018               M         BCF     T1CON, TMR1ON
00C5   0020               M         BANKSEL PIR1
00C6   1010               M         BCF     PIR1, TMR1IF
                          M         
00C7   0022               M         BANKSEL LATC
                          M         MSGEQ7_STROBE_LOW
00C8   0022               M         BANKSEL LATC
Message[302]: Register in operand not in bank 0.  Ensure that bank bits are correct.
00C9   118E               M         BCF     LATC, MSGEQ7_STROBE_PIN
                          M         
                          M         TMR1_DELAY 65104
                          M         TMR1_OFFSET 65104
00CA   0020               M         BANKSEL TMR1H
                          M         MOVLF   TMR1H, high 65104
00CB   0020               M         BANKSEL TMR1H
00CC   30FE               M         MOVLW   high 65104
00CD   0097               M         MOVWF   TMR1H
                          M         MOVLF   TMR1L, low 65104
00CE   0020               M         BANKSEL TMR1L
00CF   3050               M         MOVLW   low 65104
00D0   0096               M         MOVWF   TMR1L
00D1   0020               M         BANKSEL T1CON
00D2   1418               M         BSF     T1CON, TMR1ON
00D3   0020               M         BANKSEL PIR1
00D4   1C10               M         BTFSS   PIR1, TMR1IF
00D5   2???               M          GOTO $-1
00D6   0020               M         BANKSEL T1CON
00D7   1018               M         BCF     T1CON, TMR1ON
00D8   0020               M         BANKSEL PIR1
00D9   1010               M         BCF     PIR1, TMR1IF
                      00295     READ_ADC
00DA   0021               M         BANKSEL ADCON0
Message[302]: Register in operand not in bank 0.  Ensure that bank bits are correct.
00DB   149D               M         BSF     ADCON0, ADGO
MPASM 5.77                        WS2813.ASM   8-13-2018  12:11:19         PAGE 12


LOC  OBJECT CODE     LINE SOURCE TEXT
  VALUE

Message[302]: Register in operand not in bank 0.  Ensure that bank bits are correct.
00DC   189D               M         BTFSC   ADCON0, ADGO
00DD   2???               M          GOTO   $-1
00DE   0021               M         BANKSEL ADRESH
Message[302]: Register in operand not in bank 0.  Ensure that bank bits are correct.
00DF   081C               M         MOVF    ADRESH, W
00E0   002?               M         BANKSEL WDATA
00E1   00??               M         MOVWF   WDATA+1
00E2   0021               M         BANKSEL ADRESL
Message[305]: Using default destination of 1 (file).
Message[302]: Register in operand not in bank 0.  Ensure that bank bits are correct.
00E3   089B               M         MOVF    ADRESL
00E4   002?               M         BANKSEL WDATA
00E5   00??               M         MOVWF   WDATA
00E6   3002           00296     MOVLW   2
00E7   2???           00297     CALL    RSHIFT16
                      00298     CPYFF   WDATA, WCOLOR
00E8   08??               M         MOVF    WDATA, W
00E9   00??               M         MOVWF   WCOLOR
                      00299     
00EA   2???           00300     CALL    WRITE_FRAME
00EB   2???           00301     CALL    DELAY                   ; finish up frame - add delay to reset LEDs 
00EC   2???           00302     GOTO    RENDER_LOOP
                      00303     
                      00304     
                      00305 ;BLUE - FIFTH BAND
                      00306     MSGEQ7_STROBE
                          M         MSGEQ7_STROBE_HIGH
00ED   0022               M         BANKSEL LATC
Message[302]: Register in operand not in bank 0.  Ensure that bank bits are correct.
00EE   158E               M         BSF     LATC, MSGEQ7_STROBE_PIN
                          M         
                          M         TMR1_DELAY 655408
                          M         TMR1_OFFSET 655408
00EF   0020               M         BANKSEL TMR1H
                          M         MOVLF   TMR1H, high 655408
00F0   0020               M         BANKSEL TMR1H
Message[311]: Operand of HIGH operator was larger than H'FFFF'.
00F1   3000               M         MOVLW   high 655408
00F2   0097               M         MOVWF   TMR1H
                          M         MOVLF   TMR1L, low 655408
00F3   0020               M         BANKSEL TMR1L
00F4   3030               M         MOVLW   low 655408
00F5   0096               M         MOVWF   TMR1L
00F6   0020               M         BANKSEL T1CON
00F7   1418               M         BSF     T1CON, TMR1ON
00F8   0020               M         BANKSEL PIR1
00F9   1C10               M         BTFSS   PIR1, TMR1IF
00FA   2???               M          GOTO $-1
00FB   0020               M         BANKSEL T1CON
00FC   1018               M         BCF     T1CON, TMR1ON
00FD   0020               M         BANKSEL PIR1
00FE   1010               M         BCF     PIR1, TMR1IF
MPASM 5.77                        WS2813.ASM   8-13-2018  12:11:19         PAGE 13


LOC  OBJECT CODE     LINE SOURCE TEXT
  VALUE

                          M         
00FF   0022               M         BANKSEL LATC
                          M         MSGEQ7_STROBE_LOW
0100   0022               M         BANKSEL LATC
Message[302]: Register in operand not in bank 0.  Ensure that bank bits are correct.
0101   118E               M         BCF     LATC, MSGEQ7_STROBE_PIN
                          M         
                          M         TMR1_DELAY 65104
                          M         TMR1_OFFSET 65104
0102   0020               M         BANKSEL TMR1H
                          M         MOVLF   TMR1H, high 65104
0103   0020               M         BANKSEL TMR1H
0104   30FE               M         MOVLW   high 65104
0105   0097               M         MOVWF   TMR1H
                          M         MOVLF   TMR1L, low 65104
0106   0020               M         BANKSEL TMR1L
0107   3050               M         MOVLW   low 65104
0108   0096               M         MOVWF   TMR1L
0109   0020               M         BANKSEL T1CON
010A   1418               M         BSF     T1CON, TMR1ON
010B   0020               M         BANKSEL PIR1
010C   1C10               M         BTFSS   PIR1, TMR1IF
010D   2???               M          GOTO $-1
010E   0020               M         BANKSEL T1CON
010F   1018               M         BCF     T1CON, TMR1ON
0110   0020               M         BANKSEL PIR1
0111   1010               M         BCF     PIR1, TMR1IF
                      00307     MSGEQ7_STROBE
                          M         MSGEQ7_STROBE_HIGH
0112   0022               M         BANKSEL LATC
Message[302]: Register in operand not in bank 0.  Ensure that bank bits are correct.
0113   158E               M         BSF     LATC, MSGEQ7_STROBE_PIN
                          M         
                          M         TMR1_DELAY 655408
                          M         TMR1_OFFSET 655408
0114   0020               M         BANKSEL TMR1H
                          M         MOVLF   TMR1H, high 655408
0115   0020               M         BANKSEL TMR1H
Message[311]: Operand of HIGH operator was larger than H'FFFF'.
0116   3000               M         MOVLW   high 655408
0117   0097               M         MOVWF   TMR1H
                          M         MOVLF   TMR1L, low 655408
0118   0020               M         BANKSEL TMR1L
0119   3030               M         MOVLW   low 655408
011A   0096               M         MOVWF   TMR1L
011B   0020               M         BANKSEL T1CON
011C   1418               M         BSF     T1CON, TMR1ON
011D   0020               M         BANKSEL PIR1
011E   1C10               M         BTFSS   PIR1, TMR1IF
011F   2???               M          GOTO $-1
0120   0020               M         BANKSEL T1CON
0121   1018               M         BCF     T1CON, TMR1ON
0122   0020               M         BANKSEL PIR1
MPASM 5.77                        WS2813.ASM   8-13-2018  12:11:19         PAGE 14


LOC  OBJECT CODE     LINE SOURCE TEXT
  VALUE

0123   1010               M         BCF     PIR1, TMR1IF
                          M         
0124   0022               M         BANKSEL LATC
                          M         MSGEQ7_STROBE_LOW
0125   0022               M         BANKSEL LATC
Message[302]: Register in operand not in bank 0.  Ensure that bank bits are correct.
0126   118E               M         BCF     LATC, MSGEQ7_STROBE_PIN
                          M         
                          M         TMR1_DELAY 65104
                          M         TMR1_OFFSET 65104
0127   0020               M         BANKSEL TMR1H
                          M         MOVLF   TMR1H, high 65104
0128   0020               M         BANKSEL TMR1H
0129   30FE               M         MOVLW   high 65104
012A   0097               M         MOVWF   TMR1H
                          M         MOVLF   TMR1L, low 65104
012B   0020               M         BANKSEL TMR1L
012C   3050               M         MOVLW   low 65104
012D   0096               M         MOVWF   TMR1L
012E   0020               M         BANKSEL T1CON
012F   1418               M         BSF     T1CON, TMR1ON
0130   0020               M         BANKSEL PIR1
0131   1C10               M         BTFSS   PIR1, TMR1IF
0132   2???               M          GOTO $-1
0133   0020               M         BANKSEL T1CON
0134   1018               M         BCF     T1CON, TMR1ON
0135   0020               M         BANKSEL PIR1
0136   1010               M         BCF     PIR1, TMR1IF
                      00308     READ_SETTLE
                          M         TMR1_DELAY 65232
                          M         TMR1_OFFSET 65232
0137   0020               M         BANKSEL TMR1H
                          M         MOVLF   TMR1H, high 65232
0138   0020               M         BANKSEL TMR1H
0139   30FE               M         MOVLW   high 65232
013A   0097               M         MOVWF   TMR1H
                          M         MOVLF   TMR1L, low 65232
013B   0020               M         BANKSEL TMR1L
013C   30D0               M         MOVLW   low 65232
013D   0096               M         MOVWF   TMR1L
013E   0020               M         BANKSEL T1CON
013F   1418               M         BSF     T1CON, TMR1ON
0140   0020               M         BANKSEL PIR1
0141   1C10               M         BTFSS   PIR1, TMR1IF
0142   2???               M          GOTO $-1
0143   0020               M         BANKSEL T1CON
0144   1018               M         BCF     T1CON, TMR1ON
0145   0020               M         BANKSEL PIR1
0146   1010               M         BCF     PIR1, TMR1IF
                      00309     READ_ADC
0147   0021               M         BANKSEL ADCON0
Message[302]: Register in operand not in bank 0.  Ensure that bank bits are correct.
0148   149D               M         BSF     ADCON0, ADGO
MPASM 5.77                        WS2813.ASM   8-13-2018  12:11:19         PAGE 15


LOC  OBJECT CODE     LINE SOURCE TEXT
  VALUE

Message[302]: Register in operand not in bank 0.  Ensure that bank bits are correct.
0149   189D               M         BTFSC   ADCON0, ADGO
014A   2???               M          GOTO   $-1
014B   0021               M         BANKSEL ADRESH
Message[302]: Register in operand not in bank 0.  Ensure that bank bits are correct.
014C   081C               M         MOVF    ADRESH, W
014D   002?               M         BANKSEL WDATA
014E   00??               M         MOVWF   WDATA+1
014F   0021               M         BANKSEL ADRESL
Message[305]: Using default destination of 1 (file).
Message[302]: Register in operand not in bank 0.  Ensure that bank bits are correct.
0150   089B               M         MOVF    ADRESL
0151   002?               M         BANKSEL WDATA
0152   00??               M         MOVWF   WDATA
0153   3002           00310     MOVLW   2
0154   2???           00311     CALL    RSHIFT16
                      00312     CPYFF   WDATA, WCOLOR+2
0155   08??               M         MOVF    WDATA, W
0156   00??               M         MOVWF   WCOLOR+2
                      00313     
                      00314     
0157   2???           00315     CALL    WRITE_FRAME
0158   2???           00316     CALL    DELAY                   ; finish up frame - add delay to reset LEDs 
0159   2???           00317     GOTO    RENDER_LOOP
                      00318  
015A                  00319 WRITE_FRAME:
                      00320     MOVLF   WRITE_COUNT, NUM_LEDS   ; copy NUM_LEDS to WRITE_COUNT
015A   002?               M         BANKSEL WRITE_COUNT
015B   303C               M         MOVLW   60
015C   00??               M         MOVWF   WRITE_COUNT
Message[305]: Using default destination of 1 (file).
015D   0B??           00321     DECFSZ  FRAMECOUNT
015E   2???           00322     GOTO    WRITE_LED
                      00323     MOVLF   FRAMECOUNT, NUM_LEDS
015F   002?               M         BANKSEL FRAMECOUNT
0160   303C               M         MOVLW   60
0161   00??               M         MOVWF   FRAMECOUNT
                      00324     
0162                  00325 WRITE_LED:
0162   2???           00326     CALL    WS2813_WRITE            ; write out LED to strip
0163   0B??           00327     DECFSZ  WRITE_COUNT, F                  
0164   2???           00328     GOTO    WRITE_LED               ; repeat until all LEDs have been written to
                      00329     
0165   0008           00330     RETURN
                      00331     
                      00332 
                      00333 ;*******************************************************************************
                      00334 ;                                   DELAY
                      00335 ;*******************************************************************************
0166                  00336 DELAY:
0166   002?           00337     BANKSEL WS2813_RESET
                      00338     CPYFF   WS2813_RESET, WS2813_RESET_COPY
0167   08??               M         MOVF    WS2813_RESET, W
MPASM 5.77                        WS2813.ASM   8-13-2018  12:11:19         PAGE 16


LOC  OBJECT CODE     LINE SOURCE TEXT
  VALUE

0168   00??               M         MOVWF   WS2813_RESET_COPY
                      00339     
0169                  00340 OL:                                 ; outer loop (nested for loops)
                      00341     CPYFF   WS2813_RESET+1, WS2813_RESET_COPY+1
0169   08??               M         MOVF    WS2813_RESET+1, W
016A   00??               M         MOVWF   WS2813_RESET_COPY+1
016B   0B??           00342     DECFSZ  WS2813_RESET_COPY, F
016C   2???           00343     GOTO    IL
016D   2???           00344     GOTO    DONE
016E                  00345 IL:                                 ; outer loop
016E   0B??           00346     DECFSZ  WS2813_RESET_COPY+1, F
016F   2???           00347     GOTO    $-1
0170   2???           00348     GOTO    OL
0171                  00349 DONE:
0171   0008           00350     RETURN
                      00351     
                      00352     
                      00353     
                      00354 
                      00355 ;*******************************************************************************
                      00356 ;                                WS2813_WRITE
                      00357 ;*******************************************************************************
0172                  00358 WS2813_WRITE:
                      00359     ;
                      00360     ;
                      00361     ;
                      00362     ; GREEN
0172   1F80           00363     BTFSS   WCOLOR, 7
0173   2???           00364     GOTO    $+11
                      00365     BITHIGH
Message[302]: Register in operand not in bank 0.  Ensure that bank bits are correct.
0174   160E               M         BSF     LATC, WS2813_PIN
0175   0000               M         NOP
0176   0000               M         NOP
0177   0000               M         NOP
0178   0000               M         NOP
0179   0000               M         NOP
017A   0000               M         NOP
017B   0000               M         NOP
Message[302]: Register in operand not in bank 0.  Ensure that bank bits are correct.
017C   120E               M         BCF     LATC, WS2813_PIN
017D   2???           00366     GOTO    $+10
                      00367     BITLOW
Message[302]: Register in operand not in bank 0.  Ensure that bank bits are correct.
017E   160E               M         BSF     LATC, WS2813_PIN
017F   0000               M         NOP
0180   0000               M         NOP
Message[302]: Register in operand not in bank 0.  Ensure that bank bits are correct.
0181   120E               M         BCF     LATC, WS2813_PIN
0182   0000               M         NOP
0183   0000               M         NOP
0184   0000               M         NOP
0185   0000               M         NOP
MPASM 5.77                        WS2813.ASM   8-13-2018  12:11:19         PAGE 17


LOC  OBJECT CODE     LINE SOURCE TEXT
  VALUE

0186   0000               M         NOP
                      00368     
0187   1F00           00369     BTFSS   WCOLOR, 6
0188   2???           00370     GOTO    $+11
                      00371     BITHIGH
Message[302]: Register in operand not in bank 0.  Ensure that bank bits are correct.
0189   160E               M         BSF     LATC, WS2813_PIN
018A   0000               M         NOP
018B   0000               M         NOP
018C   0000               M         NOP
018D   0000               M         NOP
018E   0000               M         NOP
018F   0000               M         NOP
0190   0000               M         NOP
Message[302]: Register in operand not in bank 0.  Ensure that bank bits are correct.
0191   120E               M         BCF     LATC, WS2813_PIN
0192   2???           00372     GOTO    $+10
                      00373     BITLOW
Message[302]: Register in operand not in bank 0.  Ensure that bank bits are correct.
0193   160E               M         BSF     LATC, WS2813_PIN
0194   0000               M         NOP
0195   0000               M         NOP
Message[302]: Register in operand not in bank 0.  Ensure that bank bits are correct.
0196   120E               M         BCF     LATC, WS2813_PIN
0197   0000               M         NOP
0198   0000               M         NOP
0199   0000               M         NOP
019A   0000               M         NOP
019B   0000               M         NOP
                      00374     
019C   1E80           00375     BTFSS   WCOLOR, 5
019D   2???           00376     GOTO    $+11
                      00377     BITHIGH
Message[302]: Register in operand not in bank 0.  Ensure that bank bits are correct.
019E   160E               M         BSF     LATC, WS2813_PIN
019F   0000               M         NOP
01A0   0000               M         NOP
01A1   0000               M         NOP
01A2   0000               M         NOP
01A3   0000               M         NOP
01A4   0000               M         NOP
01A5   0000               M         NOP
Message[302]: Register in operand not in bank 0.  Ensure that bank bits are correct.
01A6   120E               M         BCF     LATC, WS2813_PIN
01A7   2???           00378     GOTO    $+10
                      00379     BITLOW
Message[302]: Register in operand not in bank 0.  Ensure that bank bits are correct.
01A8   160E               M         BSF     LATC, WS2813_PIN
01A9   0000               M         NOP
01AA   0000               M         NOP
Message[302]: Register in operand not in bank 0.  Ensure that bank bits are correct.
01AB   120E               M         BCF     LATC, WS2813_PIN
01AC   0000               M         NOP
MPASM 5.77                        WS2813.ASM   8-13-2018  12:11:19         PAGE 18


LOC  OBJECT CODE     LINE SOURCE TEXT
  VALUE

01AD   0000               M         NOP
01AE   0000               M         NOP
01AF   0000               M         NOP
01B0   0000               M         NOP
                      00380     
01B1   1E00           00381     BTFSS   WCOLOR, 4
01B2   2???           00382     GOTO    $+11
                      00383     BITHIGH
Message[302]: Register in operand not in bank 0.  Ensure that bank bits are correct.
01B3   160E               M         BSF     LATC, WS2813_PIN
01B4   0000               M         NOP
01B5   0000               M         NOP
01B6   0000               M         NOP
01B7   0000               M         NOP
01B8   0000               M         NOP
01B9   0000               M         NOP
01BA   0000               M         NOP
Message[302]: Register in operand not in bank 0.  Ensure that bank bits are correct.
01BB   120E               M         BCF     LATC, WS2813_PIN
01BC   2???           00384     GOTO    $+10
                      00385     BITLOW
Message[302]: Register in operand not in bank 0.  Ensure that bank bits are correct.
01BD   160E               M         BSF     LATC, WS2813_PIN
01BE   0000               M         NOP
01BF   0000               M         NOP
Message[302]: Register in operand not in bank 0.  Ensure that bank bits are correct.
01C0   120E               M         BCF     LATC, WS2813_PIN
01C1   0000               M         NOP
01C2   0000               M         NOP
01C3   0000               M         NOP
01C4   0000               M         NOP
01C5   0000               M         NOP
                      00386     
01C6   1D80           00387     BTFSS   WCOLOR, 3
01C7   2???           00388     GOTO    $+11
                      00389     BITHIGH
Message[302]: Register in operand not in bank 0.  Ensure that bank bits are correct.
01C8   160E               M         BSF     LATC, WS2813_PIN
01C9   0000               M         NOP
01CA   0000               M         NOP
01CB   0000               M         NOP
01CC   0000               M         NOP
01CD   0000               M         NOP
01CE   0000               M         NOP
01CF   0000               M         NOP
Message[302]: Register in operand not in bank 0.  Ensure that bank bits are correct.
01D0   120E               M         BCF     LATC, WS2813_PIN
01D1   2???           00390     GOTO    $+10
                      00391     BITLOW
Message[302]: Register in operand not in bank 0.  Ensure that bank bits are correct.
01D2   160E               M         BSF     LATC, WS2813_PIN
01D3   0000               M         NOP
01D4   0000               M         NOP
MPASM 5.77                        WS2813.ASM   8-13-2018  12:11:19         PAGE 19


LOC  OBJECT CODE     LINE SOURCE TEXT
  VALUE

Message[302]: Register in operand not in bank 0.  Ensure that bank bits are correct.
01D5   120E               M         BCF     LATC, WS2813_PIN
01D6   0000               M         NOP
01D7   0000               M         NOP
01D8   0000               M         NOP
01D9   0000               M         NOP
01DA   0000               M         NOP
                      00392     
01DB   1D00           00393     BTFSS   WCOLOR, 2
01DC   2???           00394     GOTO    $+11
                      00395     BITHIGH
Message[302]: Register in operand not in bank 0.  Ensure that bank bits are correct.
01DD   160E               M         BSF     LATC, WS2813_PIN
01DE   0000               M         NOP
01DF   0000               M         NOP
01E0   0000               M         NOP
01E1   0000               M         NOP
01E2   0000               M         NOP
01E3   0000               M         NOP
01E4   0000               M         NOP
Message[302]: Register in operand not in bank 0.  Ensure that bank bits are correct.
01E5   120E               M         BCF     LATC, WS2813_PIN
01E6   2???           00396     GOTO    $+10
                      00397     BITLOW
Message[302]: Register in operand not in bank 0.  Ensure that bank bits are correct.
01E7   160E               M         BSF     LATC, WS2813_PIN
01E8   0000               M         NOP
01E9   0000               M         NOP
Message[302]: Register in operand not in bank 0.  Ensure that bank bits are correct.
01EA   120E               M         BCF     LATC, WS2813_PIN
01EB   0000               M         NOP
01EC   0000               M         NOP
01ED   0000               M         NOP
01EE   0000               M         NOP
01EF   0000               M         NOP
                      00398     
01F0   1C80           00399     BTFSS   WCOLOR, 1
01F1   2???           00400     GOTO    $+11
                      00401     BITHIGH
Message[302]: Register in operand not in bank 0.  Ensure that bank bits are correct.
01F2   160E               M         BSF     LATC, WS2813_PIN
01F3   0000               M         NOP
01F4   0000               M         NOP
01F5   0000               M         NOP
01F6   0000               M         NOP
01F7   0000               M         NOP
01F8   0000               M         NOP
01F9   0000               M         NOP
Message[302]: Register in operand not in bank 0.  Ensure that bank bits are correct.
01FA   120E               M         BCF     LATC, WS2813_PIN
01FB   2???           00402     GOTO    $+10
                      00403     BITLOW
Message[302]: Register in operand not in bank 0.  Ensure that bank bits are correct.
MPASM 5.77                        WS2813.ASM   8-13-2018  12:11:19         PAGE 20


LOC  OBJECT CODE     LINE SOURCE TEXT
  VALUE

01FC   160E               M         BSF     LATC, WS2813_PIN
01FD   0000               M         NOP
01FE   0000               M         NOP
Message[302]: Register in operand not in bank 0.  Ensure that bank bits are correct.
01FF   120E               M         BCF     LATC, WS2813_PIN
0200   0000               M         NOP
0201   0000               M         NOP
0202   0000               M         NOP
0203   0000               M         NOP
0204   0000               M         NOP
                      00404     
0205   1C00           00405     BTFSS   WCOLOR, 0
0206   2???           00406     GOTO    $+11
                      00407     BITHIGH
Message[302]: Register in operand not in bank 0.  Ensure that bank bits are correct.
0207   160E               M         BSF     LATC, WS2813_PIN
0208   0000               M         NOP
0209   0000               M         NOP
020A   0000               M         NOP
020B   0000               M         NOP
020C   0000               M         NOP
020D   0000               M         NOP
020E   0000               M         NOP
Message[302]: Register in operand not in bank 0.  Ensure that bank bits are correct.
020F   120E               M         BCF     LATC, WS2813_PIN
0210   2???           00408     GOTO    $+10
                      00409     BITLOW
Message[302]: Register in operand not in bank 0.  Ensure that bank bits are correct.
0211   160E               M         BSF     LATC, WS2813_PIN
0212   0000               M         NOP
0213   0000               M         NOP
Message[302]: Register in operand not in bank 0.  Ensure that bank bits are correct.
0214   120E               M         BCF     LATC, WS2813_PIN
0215   0000               M         NOP
0216   0000               M         NOP
0217   0000               M         NOP
0218   0000               M         NOP
0219   0000               M         NOP
                      00410     ;
                      00411     ;
                      00412     ;
                      00413     ; RED
021A   1F80           00414     BTFSS   WCOLOR+1, 7
021B   2???           00415     GOTO    $+11
                      00416     BITHIGH
Message[302]: Register in operand not in bank 0.  Ensure that bank bits are correct.
021C   160E               M         BSF     LATC, WS2813_PIN
021D   0000               M         NOP
021E   0000               M         NOP
021F   0000               M         NOP
0220   0000               M         NOP
0221   0000               M         NOP
0222   0000               M         NOP
MPASM 5.77                        WS2813.ASM   8-13-2018  12:11:19         PAGE 21


LOC  OBJECT CODE     LINE SOURCE TEXT
  VALUE

0223   0000               M         NOP
Message[302]: Register in operand not in bank 0.  Ensure that bank bits are correct.
0224   120E               M         BCF     LATC, WS2813_PIN
0225   2???           00417     GOTO    $+10
                      00418     BITLOW
Message[302]: Register in operand not in bank 0.  Ensure that bank bits are correct.
0226   160E               M         BSF     LATC, WS2813_PIN
0227   0000               M         NOP
0228   0000               M         NOP
Message[302]: Register in operand not in bank 0.  Ensure that bank bits are correct.
0229   120E               M         BCF     LATC, WS2813_PIN
022A   0000               M         NOP
022B   0000               M         NOP
022C   0000               M         NOP
022D   0000               M         NOP
022E   0000               M         NOP
                      00419     
022F   1F00           00420     BTFSS   WCOLOR+1, 6
0230   2???           00421     GOTO    $+11
                      00422     BITHIGH
Message[302]: Register in operand not in bank 0.  Ensure that bank bits are correct.
0231   160E               M         BSF     LATC, WS2813_PIN
0232   0000               M         NOP
0233   0000               M         NOP
0234   0000               M         NOP
0235   0000               M         NOP
0236   0000               M         NOP
0237   0000               M         NOP
0238   0000               M         NOP
Message[302]: Register in operand not in bank 0.  Ensure that bank bits are correct.
0239   120E               M         BCF     LATC, WS2813_PIN
023A   2???           00423     GOTO    $+10
                      00424     BITLOW
Message[302]: Register in operand not in bank 0.  Ensure that bank bits are correct.
023B   160E               M         BSF     LATC, WS2813_PIN
023C   0000               M         NOP
023D   0000               M         NOP
Message[302]: Register in operand not in bank 0.  Ensure that bank bits are correct.
023E   120E               M         BCF     LATC, WS2813_PIN
023F   0000               M         NOP
0240   0000               M         NOP
0241   0000               M         NOP
0242   0000               M         NOP
0243   0000               M         NOP
                      00425     
0244   1E80           00426     BTFSS   WCOLOR+1, 5
0245   2???           00427     GOTO    $+11
                      00428     BITHIGH
Message[302]: Register in operand not in bank 0.  Ensure that bank bits are correct.
0246   160E               M         BSF     LATC, WS2813_PIN
0247   0000               M         NOP
0248   0000               M         NOP
0249   0000               M         NOP
MPASM 5.77                        WS2813.ASM   8-13-2018  12:11:19         PAGE 22


LOC  OBJECT CODE     LINE SOURCE TEXT
  VALUE

024A   0000               M         NOP
024B   0000               M         NOP
024C   0000               M         NOP
024D   0000               M         NOP
Message[302]: Register in operand not in bank 0.  Ensure that bank bits are correct.
024E   120E               M         BCF     LATC, WS2813_PIN
024F   2???           00429     GOTO    $+10
                      00430     BITLOW
Message[302]: Register in operand not in bank 0.  Ensure that bank bits are correct.
0250   160E               M         BSF     LATC, WS2813_PIN
0251   0000               M         NOP
0252   0000               M         NOP
Message[302]: Register in operand not in bank 0.  Ensure that bank bits are correct.
0253   120E               M         BCF     LATC, WS2813_PIN
0254   0000               M         NOP
0255   0000               M         NOP
0256   0000               M         NOP
0257   0000               M         NOP
0258   0000               M         NOP
                      00431     
0259   1E00           00432     BTFSS   WCOLOR+1, 4
025A   2???           00433     GOTO    $+11
                      00434     BITHIGH
Message[302]: Register in operand not in bank 0.  Ensure that bank bits are correct.
025B   160E               M         BSF     LATC, WS2813_PIN
025C   0000               M         NOP
025D   0000               M         NOP
025E   0000               M         NOP
025F   0000               M         NOP
0260   0000               M         NOP
0261   0000               M         NOP
0262   0000               M         NOP
Message[302]: Register in operand not in bank 0.  Ensure that bank bits are correct.
0263   120E               M         BCF     LATC, WS2813_PIN
0264   2???           00435     GOTO    $+10
                      00436     BITLOW
Message[302]: Register in operand not in bank 0.  Ensure that bank bits are correct.
0265   160E               M         BSF     LATC, WS2813_PIN
0266   0000               M         NOP
0267   0000               M         NOP
Message[302]: Register in operand not in bank 0.  Ensure that bank bits are correct.
0268   120E               M         BCF     LATC, WS2813_PIN
0269   0000               M         NOP
026A   0000               M         NOP
026B   0000               M         NOP
026C   0000               M         NOP
026D   0000               M         NOP
                      00437     
026E   1D80           00438     BTFSS   WCOLOR+1, 3
026F   2???           00439     GOTO    $+11
                      00440     BITHIGH
Message[302]: Register in operand not in bank 0.  Ensure that bank bits are correct.
0270   160E               M         BSF     LATC, WS2813_PIN
MPASM 5.77                        WS2813.ASM   8-13-2018  12:11:19         PAGE 23


LOC  OBJECT CODE     LINE SOURCE TEXT
  VALUE

0271   0000               M         NOP
0272   0000               M         NOP
0273   0000               M         NOP
0274   0000               M         NOP
0275   0000               M         NOP
0276   0000               M         NOP
0277   0000               M         NOP
Message[302]: Register in operand not in bank 0.  Ensure that bank bits are correct.
0278   120E               M         BCF     LATC, WS2813_PIN
0279   2???           00441     GOTO    $+10
                      00442     BITLOW
Message[302]: Register in operand not in bank 0.  Ensure that bank bits are correct.
027A   160E               M         BSF     LATC, WS2813_PIN
027B   0000               M         NOP
027C   0000               M         NOP
Message[302]: Register in operand not in bank 0.  Ensure that bank bits are correct.
027D   120E               M         BCF     LATC, WS2813_PIN
027E   0000               M         NOP
027F   0000               M         NOP
0280   0000               M         NOP
0281   0000               M         NOP
0282   0000               M         NOP
                      00443     
0283   1D00           00444     BTFSS   WCOLOR+1, 2
0284   2???           00445     GOTO    $+11
                      00446     BITHIGH
Message[302]: Register in operand not in bank 0.  Ensure that bank bits are correct.
0285   160E               M         BSF     LATC, WS2813_PIN
0286   0000               M         NOP
0287   0000               M         NOP
0288   0000               M         NOP
0289   0000               M         NOP
028A   0000               M         NOP
028B   0000               M         NOP
028C   0000               M         NOP
Message[302]: Register in operand not in bank 0.  Ensure that bank bits are correct.
028D   120E               M         BCF     LATC, WS2813_PIN
028E   2???           00447     GOTO    $+10
                      00448     BITLOW
Message[302]: Register in operand not in bank 0.  Ensure that bank bits are correct.
028F   160E               M         BSF     LATC, WS2813_PIN
0290   0000               M         NOP
0291   0000               M         NOP
Message[302]: Register in operand not in bank 0.  Ensure that bank bits are correct.
0292   120E               M         BCF     LATC, WS2813_PIN
0293   0000               M         NOP
0294   0000               M         NOP
0295   0000               M         NOP
0296   0000               M         NOP
0297   0000               M         NOP
                      00449     
0298   1C80           00450     BTFSS   WCOLOR+1, 1
0299   2???           00451     GOTO    $+11
MPASM 5.77                        WS2813.ASM   8-13-2018  12:11:19         PAGE 24


LOC  OBJECT CODE     LINE SOURCE TEXT
  VALUE

                      00452     BITHIGH
Message[302]: Register in operand not in bank 0.  Ensure that bank bits are correct.
029A   160E               M         BSF     LATC, WS2813_PIN
029B   0000               M         NOP
029C   0000               M         NOP
029D   0000               M         NOP
029E   0000               M         NOP
029F   0000               M         NOP
02A0   0000               M         NOP
02A1   0000               M         NOP
Message[302]: Register in operand not in bank 0.  Ensure that bank bits are correct.
02A2   120E               M         BCF     LATC, WS2813_PIN
02A3   2???           00453     GOTO    $+10
                      00454     BITLOW
Message[302]: Register in operand not in bank 0.  Ensure that bank bits are correct.
02A4   160E               M         BSF     LATC, WS2813_PIN
02A5   0000               M         NOP
02A6   0000               M         NOP
Message[302]: Register in operand not in bank 0.  Ensure that bank bits are correct.
02A7   120E               M         BCF     LATC, WS2813_PIN
02A8   0000               M         NOP
02A9   0000               M         NOP
02AA   0000               M         NOP
02AB   0000               M         NOP
02AC   0000               M         NOP
                      00455     
02AD   1C00           00456     BTFSS   WCOLOR+1, 0
02AE   2???           00457     GOTO    $+11
                      00458     BITHIGH
Message[302]: Register in operand not in bank 0.  Ensure that bank bits are correct.
02AF   160E               M         BSF     LATC, WS2813_PIN
02B0   0000               M         NOP
02B1   0000               M         NOP
02B2   0000               M         NOP
02B3   0000               M         NOP
02B4   0000               M         NOP
02B5   0000               M         NOP
02B6   0000               M         NOP
Message[302]: Register in operand not in bank 0.  Ensure that bank bits are correct.
02B7   120E               M         BCF     LATC, WS2813_PIN
02B8   2???           00459     GOTO    $+10
                      00460     BITLOW
Message[302]: Register in operand not in bank 0.  Ensure that bank bits are correct.
02B9   160E               M         BSF     LATC, WS2813_PIN
02BA   0000               M         NOP
02BB   0000               M         NOP
Message[302]: Register in operand not in bank 0.  Ensure that bank bits are correct.
02BC   120E               M         BCF     LATC, WS2813_PIN
02BD   0000               M         NOP
02BE   0000               M         NOP
02BF   0000               M         NOP
02C0   0000               M         NOP
02C1   0000               M         NOP
MPASM 5.77                        WS2813.ASM   8-13-2018  12:11:19         PAGE 25


LOC  OBJECT CODE     LINE SOURCE TEXT
  VALUE

                      00461     ;
                      00462     ;
                      00463     ;
                      00464     ; BLUE
02C2   1F80           00465     BTFSS   WCOLOR+2, 7
02C3   2???           00466     GOTO    $+11
                      00467     BITHIGH
Message[302]: Register in operand not in bank 0.  Ensure that bank bits are correct.
02C4   160E               M         BSF     LATC, WS2813_PIN
02C5   0000               M         NOP
02C6   0000               M         NOP
02C7   0000               M         NOP
02C8   0000               M         NOP
02C9   0000               M         NOP
02CA   0000               M         NOP
02CB   0000               M         NOP
Message[302]: Register in operand not in bank 0.  Ensure that bank bits are correct.
02CC   120E               M         BCF     LATC, WS2813_PIN
02CD   2???           00468     GOTO    $+10
                      00469     BITLOW
Message[302]: Register in operand not in bank 0.  Ensure that bank bits are correct.
02CE   160E               M         BSF     LATC, WS2813_PIN
02CF   0000               M         NOP
02D0   0000               M         NOP
Message[302]: Register in operand not in bank 0.  Ensure that bank bits are correct.
02D1   120E               M         BCF     LATC, WS2813_PIN
02D2   0000               M         NOP
02D3   0000               M         NOP
02D4   0000               M         NOP
02D5   0000               M         NOP
02D6   0000               M         NOP
                      00470     
02D7   1F00           00471     BTFSS   WCOLOR+2, 6
02D8   2???           00472     GOTO    $+11
                      00473     BITHIGH
Message[302]: Register in operand not in bank 0.  Ensure that bank bits are correct.
02D9   160E               M         BSF     LATC, WS2813_PIN
02DA   0000               M         NOP
02DB   0000               M         NOP
02DC   0000               M         NOP
02DD   0000               M         NOP
02DE   0000               M         NOP
02DF   0000               M         NOP
02E0   0000               M         NOP
Message[302]: Register in operand not in bank 0.  Ensure that bank bits are correct.
02E1   120E               M         BCF     LATC, WS2813_PIN
02E2   2???           00474     GOTO    $+10
                      00475     BITLOW
Message[302]: Register in operand not in bank 0.  Ensure that bank bits are correct.
02E3   160E               M         BSF     LATC, WS2813_PIN
02E4   0000               M         NOP
02E5   0000               M         NOP
Message[302]: Register in operand not in bank 0.  Ensure that bank bits are correct.
MPASM 5.77                        WS2813.ASM   8-13-2018  12:11:19         PAGE 26


LOC  OBJECT CODE     LINE SOURCE TEXT
  VALUE

02E6   120E               M         BCF     LATC, WS2813_PIN
02E7   0000               M         NOP
02E8   0000               M         NOP
02E9   0000               M         NOP
02EA   0000               M         NOP
02EB   0000               M         NOP
                      00476     
02EC   1E80           00477     BTFSS   WCOLOR+2, 5
02ED   2???           00478     GOTO    $+11
                      00479     BITHIGH
Message[302]: Register in operand not in bank 0.  Ensure that bank bits are correct.
02EE   160E               M         BSF     LATC, WS2813_PIN
02EF   0000               M         NOP
02F0   0000               M         NOP
02F1   0000               M         NOP
02F2   0000               M         NOP
02F3   0000               M         NOP
02F4   0000               M         NOP
02F5   0000               M         NOP
Message[302]: Register in operand not in bank 0.  Ensure that bank bits are correct.
02F6   120E               M         BCF     LATC, WS2813_PIN
02F7   2???           00480     GOTO    $+10
                      00481     BITLOW
Message[302]: Register in operand not in bank 0.  Ensure that bank bits are correct.
02F8   160E               M         BSF     LATC, WS2813_PIN
02F9   0000               M         NOP
02FA   0000               M         NOP
Message[302]: Register in operand not in bank 0.  Ensure that bank bits are correct.
02FB   120E               M         BCF     LATC, WS2813_PIN
02FC   0000               M         NOP
02FD   0000               M         NOP
02FE   0000               M         NOP
02FF   0000               M         NOP
0300   0000               M         NOP
                      00482     
0301   1E00           00483     BTFSS   WCOLOR+2, 4
0302   2???           00484     GOTO    $+11
                      00485     BITHIGH
Message[302]: Register in operand not in bank 0.  Ensure that bank bits are correct.
0303   160E               M         BSF     LATC, WS2813_PIN
0304   0000               M         NOP
0305   0000               M         NOP
0306   0000               M         NOP
0307   0000               M         NOP
0308   0000               M         NOP
0309   0000               M         NOP
030A   0000               M         NOP
Message[302]: Register in operand not in bank 0.  Ensure that bank bits are correct.
030B   120E               M         BCF     LATC, WS2813_PIN
030C   2???           00486     GOTO    $+10
                      00487     BITLOW
Message[302]: Register in operand not in bank 0.  Ensure that bank bits are correct.
030D   160E               M         BSF     LATC, WS2813_PIN
MPASM 5.77                        WS2813.ASM   8-13-2018  12:11:19         PAGE 27


LOC  OBJECT CODE     LINE SOURCE TEXT
  VALUE

030E   0000               M         NOP
030F   0000               M         NOP
Message[302]: Register in operand not in bank 0.  Ensure that bank bits are correct.
0310   120E               M         BCF     LATC, WS2813_PIN
0311   0000               M         NOP
0312   0000               M         NOP
0313   0000               M         NOP
0314   0000               M         NOP
0315   0000               M         NOP
                      00488     
0316   1D80           00489     BTFSS   WCOLOR+2, 3
0317   2???           00490     GOTO    $+11
                      00491     BITHIGH
Message[302]: Register in operand not in bank 0.  Ensure that bank bits are correct.
0318   160E               M         BSF     LATC, WS2813_PIN
0319   0000               M         NOP
031A   0000               M         NOP
031B   0000               M         NOP
031C   0000               M         NOP
031D   0000               M         NOP
031E   0000               M         NOP
031F   0000               M         NOP
Message[302]: Register in operand not in bank 0.  Ensure that bank bits are correct.
0320   120E               M         BCF     LATC, WS2813_PIN
0321   2???           00492     GOTO    $+10
                      00493     BITLOW
Message[302]: Register in operand not in bank 0.  Ensure that bank bits are correct.
0322   160E               M         BSF     LATC, WS2813_PIN
0323   0000               M         NOP
0324   0000               M         NOP
Message[302]: Register in operand not in bank 0.  Ensure that bank bits are correct.
0325   120E               M         BCF     LATC, WS2813_PIN
0326   0000               M         NOP
0327   0000               M         NOP
0328   0000               M         NOP
0329   0000               M         NOP
032A   0000               M         NOP
                      00494     
032B   1D00           00495     BTFSS   WCOLOR+2, 2
032C   2???           00496     GOTO    $+11
                      00497     BITHIGH
Message[302]: Register in operand not in bank 0.  Ensure that bank bits are correct.
032D   160E               M         BSF     LATC, WS2813_PIN
032E   0000               M         NOP
032F   0000               M         NOP
0330   0000               M         NOP
0331   0000               M         NOP
0332   0000               M         NOP
0333   0000               M         NOP
0334   0000               M         NOP
Message[302]: Register in operand not in bank 0.  Ensure that bank bits are correct.
0335   120E               M         BCF     LATC, WS2813_PIN
0336   2???           00498     GOTO    $+10
MPASM 5.77                        WS2813.ASM   8-13-2018  12:11:19         PAGE 28


LOC  OBJECT CODE     LINE SOURCE TEXT
  VALUE

                      00499     BITLOW
Message[302]: Register in operand not in bank 0.  Ensure that bank bits are correct.
0337   160E               M         BSF     LATC, WS2813_PIN
0338   0000               M         NOP
0339   0000               M         NOP
Message[302]: Register in operand not in bank 0.  Ensure that bank bits are correct.
033A   120E               M         BCF     LATC, WS2813_PIN
033B   0000               M         NOP
033C   0000               M         NOP
033D   0000               M         NOP
033E   0000               M         NOP
033F   0000               M         NOP
                      00500     
0340   1C80           00501     BTFSS   WCOLOR+2, 1
0341   2???           00502     GOTO    $+11
                      00503     BITHIGH
Message[302]: Register in operand not in bank 0.  Ensure that bank bits are correct.
0342   160E               M         BSF     LATC, WS2813_PIN
0343   0000               M         NOP
0344   0000               M         NOP
0345   0000               M         NOP
0346   0000               M         NOP
0347   0000               M         NOP
0348   0000               M         NOP
0349   0000               M         NOP
Message[302]: Register in operand not in bank 0.  Ensure that bank bits are correct.
034A   120E               M         BCF     LATC, WS2813_PIN
034B   2???           00504     GOTO    $+10
                      00505     BITLOW
Message[302]: Register in operand not in bank 0.  Ensure that bank bits are correct.
034C   160E               M         BSF     LATC, WS2813_PIN
034D   0000               M         NOP
034E   0000               M         NOP
Message[302]: Register in operand not in bank 0.  Ensure that bank bits are correct.
034F   120E               M         BCF     LATC, WS2813_PIN
0350   0000               M         NOP
0351   0000               M         NOP
0352   0000               M         NOP
0353   0000               M         NOP
0354   0000               M         NOP
                      00506     
0355   1C00           00507     BTFSS   WCOLOR+2, 0
0356   2???           00508     GOTO    $+11
                      00509     BITHIGH
Message[302]: Register in operand not in bank 0.  Ensure that bank bits are correct.
0357   160E               M         BSF     LATC, WS2813_PIN
0358   0000               M         NOP
0359   0000               M         NOP
035A   0000               M         NOP
035B   0000               M         NOP
035C   0000               M         NOP
035D   0000               M         NOP
035E   0000               M         NOP
MPASM 5.77                        WS2813.ASM   8-13-2018  12:11:19         PAGE 29


LOC  OBJECT CODE     LINE SOURCE TEXT
  VALUE

Message[302]: Register in operand not in bank 0.  Ensure that bank bits are correct.
035F   120E               M         BCF     LATC, WS2813_PIN
0360   2???           00510     GOTO    $+10
Message[302]: Register in operand not in bank 0.  Ensure that bank bits are correct.
0361   160E           00511     BSF LATC, WS2813_PIN
0362   0000           00512     NOP
0363   0000           00513     NOP
Message[302]: Register in operand not in bank 0.  Ensure that bank bits are correct.
0364   120E           00514     BCF LATC, WS2813_PIN
0365   0000           00515     NOP
0366   0000           00516     NOP
                      00517     ;NOP
                      00518     ;NOP
                      00519     ;NOP
0367   0008           00520     RETURN
                      00521 
                      00522     
                      00523     
                      00524     
                      00525     
0368                  00526 RSHIFT16:
  0000                00527     LOCAL   RSLOOP
0368   1003           00528     BCF     STATUS, C
0369   1103           00529     BCF     STATUS, Z
036A   0020           00530     BANKSEL WREG
036B   1809           00531     BTFSC   WREG, 0                     ; check for odd number - will be ignored
036C   1503           00532      BSF    STATUS, Z
                      00533 
036D                  00534 RSLOOP:
036D   002?           00535     BANKSEL WDATA
036E   1800           00536     BTFSC   WDATA+1, 0
036F   1403           00537      BSF    STATUS, C
Message[305]: Using default destination of 1 (file).
0370   36??           00538     LSRF    WDATA
Message[305]: Using default destination of 1 (file).
0371   36??           00539     LSRF    WDATA+1
0372   1803           00540     BTFSC   STATUS, C
0373   1780           00541      BSF    WDATA, 7
0374   1003           00542     BCF     STATUS, C
Message[305]: Using default destination of 1 (file).
0375   0B89           00543     DECFSZ  WREG
0376   2???           00544      GOTO   RSLOOP
                      00545     
0377   0008           00546     RETURN    
                      00547     
                      00548     
                      00549     
                      00550     
                      00551     
3FFC 3FFF 3F9F        00552     END 
MPASM 5.77                        WS2813.ASM   8-13-2018  12:11:19         PAGE 30


SYMBOL TABLE
  LABEL                             VALUE 

ABDEN                             00000000
ABDOVF                            00000007
ACC0                              00000000
ACC1                              00000001
ACC10                             00000002
ACC11                             00000003
ACC12                             00000004
ACC13                             00000005
ACC14                             00000006
ACC15                             00000007
ACC16                             00000000
ACC17                             00000001
ACC18                             00000002
ACC19                             00000003
ACC2                              00000002
ACC20                             00000004
ACC21                             00000005
ACC22                             00000006
ACC23                             00000007
ACC24                             00000000
ACC25                             00000001
ACC26                             00000002
ACC27                             00000003
ACC28                             00000004
ACC29                             00000005
ACC3                              00000003
ACC30                             00000006
ACC31                             00000007
ACC32                             00000000
ACC33                             00000001
ACC34                             00000002
ACC4                              00000004
ACC5                              00000005
ACC6                              00000006
ACC7                              00000007
ACC8                              00000000
ACC9                              00000001
ACCM                              00000004
ACCS                              00000001
ACKDT                             00000005
ACKEN                             00000004
ACKSTAT                           00000006
ACKTIM                            00000007
ACQ_DELAY                         
ADCON0                            0000009D
ADCON1                            0000009E
ADCON2                            0000009F
ADCS0                             00000004
ADCS1                             00000005
ADCS2                             00000006
ADC_ANSEL                         ANSA2
ADD0                              00000000
ADD1                              00000001
MPASM 5.77                        WS2813.ASM   8-13-2018  12:11:19         PAGE 31


SYMBOL TABLE
  LABEL                             VALUE 

ADD2                              00000002
ADD3                              00000003
ADD4                              00000004
ADD5                              00000005
ADD6                              00000006
ADD7                              00000007
ADDEN                             00000003
ADFM                              00000007
ADFVR0                            00000000
ADFVR1                            00000001
ADGO                              00000001
ADIE                              00000006
ADIF                              00000006
ADON                              00000000
ADPREF0                           00000000
ADPREF1                           00000001
ADRES                             0000009B
ADRESH                            0000009C
ADRESL                            0000009B
AHEN                              00000001
ANSA0                             00000000
ANSA1                             00000001
ANSA2                             00000002
ANSA4                             00000004
ANSC0                             00000000
ANSC1                             00000001
ANSC2                             00000002
ANSC3                             00000003
ANSELA                            0000018C
ANSELC                            0000018E
APMOD                             00000001
AS                                00000000
AT1ACCS                           00000001
AT1APMOD                          00000001
AT1CAP1P                          00000003
AT1CAP2P                          00000003
AT1CAP3P                          00000003
AT1CC1                            0000088F
AT1CC10                           00000000
AT1CC11                           00000001
AT1CC12                           00000002
AT1CC13                           00000003
AT1CC14                           00000004
AT1CC15                           00000005
AT1CC16                           00000006
AT1CC17                           00000007
AT1CC18                           00000000
AT1CC19                           00000001
AT1CC1EN                          00000007
AT1CC1H                           00000890
AT1CC1IE                          00000000
AT1CC1IF                          00000000
AT1CC1L                           0000088F
MPASM 5.77                        WS2813.ASM   8-13-2018  12:11:19         PAGE 32


SYMBOL TABLE
  LABEL                             VALUE 

AT1CC1MODE                        00000000
AT1CC1POL                         00000004
AT1CC2                            00000893
AT1CC20                           00000000
AT1CC21                           00000001
AT1CC22                           00000002
AT1CC23                           00000003
AT1CC24                           00000004
AT1CC25                           00000005
AT1CC26                           00000006
AT1CC27                           00000007
AT1CC28                           00000000
AT1CC29                           00000001
AT1CC2EN                          00000007
AT1CC2H                           00000894
AT1CC2IE                          00000001
AT1CC2IF                          00000001
AT1CC2L                           00000893
AT1CC2MODE                        00000000
AT1CC2POL                         00000004
AT1CC3                            00000897
AT1CC30                           00000000
AT1CC31                           00000001
AT1CC32                           00000002
AT1CC33                           00000003
AT1CC34                           00000004
AT1CC35                           00000005
AT1CC36                           00000006
AT1CC37                           00000007
AT1CC38                           00000000
AT1CC39                           00000001
AT1CC3EN                          00000007
AT1CC3H                           00000898
AT1CC3IE                          00000002
AT1CC3IF                          00000002
AT1CC3L                           00000897
AT1CC3MODE                        00000000
AT1CC3POL                         00000004
AT1CCON1                          00000891
AT1CCON2                          00000895
AT1CCON3                          00000899
AT1CLK                            0000088C
AT1CON0                           00000814
AT1CON1                           00000815
AT1CP1S0                          00000000
AT1CP1S1                          00000001
AT1CP1S2                          00000002
AT1CP2S0                          00000000
AT1CP2S1                          00000001
AT1CP2S2                          00000002
AT1CP3S0                          00000000
AT1CP3S1                          00000001
AT1CP3S2                          00000002
MPASM 5.77                        WS2813.ASM   8-13-2018  12:11:19         PAGE 33


SYMBOL TABLE
  LABEL                             VALUE 

AT1CS                             00000000
AT1CS0                            00000000
AT1CSEL1                          0000088E
AT1CSEL2                          00000892
AT1CSEL3                          00000896
AT1EN                             00000007
AT1ERR                            0000081C
AT1ERR0                           00000000
AT1ERR1                           00000001
AT1ERR10                          00000002
AT1ERR11                          00000003
AT1ERR12                          00000004
AT1ERR13                          00000005
AT1ERR14                          00000006
AT1ERR15                          00000007
AT1ERR2                           00000002
AT1ERR3                           00000003
AT1ERR4                           00000004
AT1ERR5                           00000005
AT1ERR6                           00000006
AT1ERR7                           00000007
AT1ERR8                           00000000
AT1ERR9                           00000001
AT1ERRH                           0000081D
AT1ERRL                           0000081C
AT1IE                             00000002
AT1IE0                            00000817
AT1IE1                            00000819
AT1IF                             00000002
AT1IR0                            00000816
AT1IR1                            00000818
AT1MISS                           0000080E
AT1MISS0                          00000000
AT1MISS1                          00000001
AT1MISS10                         00000002
AT1MISS11                         00000003
AT1MISS12                         00000004
AT1MISS13                         00000005
AT1MISS14                         00000006
AT1MISS15                         00000007
AT1MISS2                          00000002
AT1MISS3                          00000003
AT1MISS4                          00000004
AT1MISS5                          00000005
AT1MISS6                          00000006
AT1MISS7                          00000007
AT1MISS8                          00000000
AT1MISS9                          00000001
AT1MISSH                          0000080F
AT1MISSIE                         00000001
AT1MISSIF                         00000001
AT1MISSL                          0000080E
AT1MODE                           00000000
MPASM 5.77                        WS2813.ASM   8-13-2018  12:11:19         PAGE 34


SYMBOL TABLE
  LABEL                             VALUE 

AT1MPP                            00000002
AT1PER                            00000810
AT1PER0                           00000000
AT1PER1                           00000001
AT1PER10                          00000002
AT1PER11                          00000003
AT1PER12                          00000004
AT1PER13                          00000005
AT1PER14                          00000006
AT1PER2                           00000002
AT1PER3                           00000003
AT1PER4                           00000004
AT1PER5                           00000005
AT1PER6                           00000006
AT1PER7                           00000007
AT1PER8                           00000000
AT1PER9                           00000001
AT1PERH                           00000811
AT1PERIE                          00000000
AT1PERIF                          00000000
AT1PERL                           00000810
AT1PHP                            00000006
AT1PHS                            00000812
AT1PHS0                           00000000
AT1PHS1                           00000001
AT1PHS2                           00000002
AT1PHS3                           00000003
AT1PHS4                           00000004
AT1PHS5                           00000005
AT1PHS6                           00000006
AT1PHS7                           00000007
AT1PHS8                           00000000
AT1PHS9                           00000001
AT1PHSH                           00000813
AT1PHSIE                          00000002
AT1PHSIF                          00000002
AT1PHSL                           00000812
AT1POL                            00000003
AT1POV                            00000007
AT1PREC                           00000006
AT1PRP                            00000004
AT1PS0                            00000004
AT1PS1                            00000005
AT1RES                            0000080C
AT1RES0                           00000000
AT1RES1                           00000001
AT1RES2                           00000002
AT1RES3                           00000003
AT1RES4                           00000004
AT1RES5                           00000005
AT1RES6                           00000006
AT1RES7                           00000007
AT1RES8                           00000000
MPASM 5.77                        WS2813.ASM   8-13-2018  12:11:19         PAGE 35


SYMBOL TABLE
  LABEL                             VALUE 

AT1RES9                           00000001
AT1RESH                           0000080D
AT1RESL                           0000080C
AT1SIG                            0000088D
AT1SSEL0                          00000000
AT1SSEL1                          00000001
AT1SSEL2                          00000002
AT1STPT                           0000081A
AT1STPT0                          00000000
AT1STPT1                          00000001
AT1STPT10                         00000002
AT1STPT11                         00000003
AT1STPT12                         00000004
AT1STPT13                         00000005
AT1STPT14                         00000006
AT1STPT2                          00000002
AT1STPT3                          00000003
AT1STPT4                          00000004
AT1STPT5                          00000005
AT1STPT6                          00000006
AT1STPT7                          00000007
AT1STPT8                          00000000
AT1STPT9                          00000001
AT1STPTH                          0000081B
AT1STPTL                          0000081A
AT1VALID                          00000000
ATCC1PPS                          00000E1F
ATCC1PPS0                         00000000
ATCC1PPS1                         00000001
ATCC1PPS2                         00000002
ATCC1PPS3                         00000003
ATCC1PPS4                         00000004
ATCC2PPS                          00000E23
ATCC2PPS0                         00000000
ATCC2PPS1                         00000001
ATCC2PPS2                         00000002
ATCC2PPS3                         00000003
ATCC2PPS4                         00000004
ATCC3PPS                          00000E2E
ATCC3PPS0                         00000000
ATCC3PPS1                         00000001
ATCC3PPS2                         00000002
ATCC3PPS3                         00000003
ATCC3PPS4                         00000004
ATINPPS                           00000E16
ATINPPS0                          00000000
ATINPPS1                          00000001
ATINPPS2                          00000002
ATINPPS3                          00000003
ATINPPS4                          00000004
BAUD1CON                          0000019F
BAUDCON                           0000019F
BAUDCON1                          0000019F
MPASM 5.77                        WS2813.ASM   8-13-2018  12:11:19         PAGE 36


SYMBOL TABLE
  LABEL                             VALUE 

BAUDCTL                           0000019F
BAUDCTL1                          0000019F
BCL1IE                            00000003
BCL1IF                            00000003
BCOUNT                            00000120
BCZ                               
BF                                00000000
BITHIGH                           
BITLOW                            
BLUE_SPECTRUM_CH                  5
BOEN                              00000004
BORCON                            00000116
BORFS                             00000006
BORRDY                            00000000
BRG16                             00000003
BRGH                              00000002
BSR                               00000008
BSR0                              00000000
BSR1                              00000001
BSR2                              00000002
BSR3                              00000003
BSR4                              00000004
BSR_SHAD                          00000FE6
BUF0                              00000000
BUF1                              00000001
BUF2                              00000002
BUF3                              00000003
BUF4                              00000004
BUF5                              00000005
BUF6                              00000006
BUF7                              00000007
BUSY_CRCCON0                      00000005
BUSY_PID1CON                      00000006
BUSY_SCANCON0                     00000005
C                                 00000000
C1AS                              00000001
C1HYS                             00000001
C1IE                              00000005
C1IF                              00000005
C1INTN                            00000006
C1INTP                            00000007
C1NCH0                            00000000
C1NCH1                            00000001
C1NCH2                            00000002
C1ON                              00000007
C1OUT                             00000006
C1PCH0                            00000004
C1PCH1                            00000005
C1POL                             00000004
C1SP                              00000002
C1SYNC                            00000000
C2AS                              00000002
C2HYS                             00000001
MPASM 5.77                        WS2813.ASM   8-13-2018  12:11:19         PAGE 37


SYMBOL TABLE
  LABEL                             VALUE 

C2IE                              00000006
C2IF                              00000006
C2INTN                            00000006
C2INTP                            00000007
C2NCH0                            00000000
C2NCH1                            00000001
C2NCH2                            00000002
C2ON                              00000007
C2OUT                             00000006
C2PCH0                            00000004
C2PCH1                            00000005
C2POL                             00000004
C2SP                              00000002
C2SYNC                            00000000
CAP1P                             00000003
CAP2P                             00000003
CAP3P                             00000003
CC10                              00000000
CC11                              00000001
CC12                              00000002
CC13                              00000003
CC14                              00000004
CC15                              00000005
CC16                              00000006
CC17                              00000007
CC18                              00000000
CC19                              00000001
CC1EN                             00000007
CC1MODE                           00000000
CC1POL                            00000004
CC20                              00000000
CC21                              00000001
CC22                              00000002
CC24                              00000004
CC26                              00000006
CC27                              00000007
CC28                              00000000
CC29                              00000001
CC2EN                             00000007
CC2MODE                           00000000
CC2POL                            00000004
CC30                              00000000
CC31                              00000001
CC32                              00000002
CC33                              00000003
CC34                              00000004
CC35                              00000005
CC36                              00000006
CC37                              00000007
CC38                              00000000
CC39                              00000001
CC3EN                             00000007
CC3MODE                           00000000
MPASM 5.77                        WS2813.ASM   8-13-2018  12:11:19         PAGE 38


SYMBOL TABLE
  LABEL                             VALUE 

CC3POL                            00000004
CCP1CAP                           00000294
CCP1CON                           00000293
CCP1CTS0                          00000000
CCP1CTS1                          00000001
CCP1CTS2                          00000002
CCP1EN                            00000007
CCP1FMT                           00000004
CCP1IE                            00000002
CCP1IF                            00000002
CCP1MODE0                         00000000
CCP1MODE1                         00000001
CCP1MODE2                         00000002
CCP1MODE3                         00000003
CCP1OUT                           00000005
CCP1PPS                           00000E14
CCP1PPS0                          00000000
CCP1PPS1                          00000001
CCP1PPS2                          00000002
CCP1PPS3                          00000003
CCP1PPS4                          00000004
CCP1TSEL0                         00000000
CCP1TSEL1                         00000001
CCP2CAP                           0000029B
CCP2CON                           0000029A
CCP2CTS0                          00000000
CCP2CTS1                          00000001
CCP2CTS2                          00000002
CCP2EN                            00000007
CCP2FMT                           00000004
CCP2IE                            00000000
CCP2IF                            00000000
CCP2MODE0                         00000000
CCP2MODE1                         00000001
CCP2MODE2                         00000002
CCP2MODE3                         00000003
CCP2OUT                           00000005
CCP2PPS                           00000E15
CCP2PPS0                          00000000
CCP2PPS1                          00000001
CCP2PPS2                          00000002
CCP2PPS3                          00000003
CCP2PPS4                          00000004
CCP2TSEL0                         00000002
CCP2TSEL1                         00000003
CCPR1                             00000291
CCPR1H                            00000292
CCPR1L                            00000291
CCPR2                             00000298
CCPR2H                            00000299
CCPR2L                            00000298
CCPTMRS                           0000029E
CCW5                              00000005
MPASM 5.77                        WS2813.ASM   8-13-2018  12:11:19         PAGE 39


SYMBOL TABLE
  LABEL                             VALUE 

CDAFVR0                           00000002
CDAFVR1                           00000003
CFGS                              00000006
CHS0                              00000002
CHS1                              00000003
CHS2                              00000004
CHS3                              00000005
CHS4                              00000006
CKE                               00000006
CKP                               00000004
CKPOL                             00000006
CKPPS                             00000E25
CKPPS0                            00000000
CKPPS1                            00000001
CKPPS2                            00000002
CKPPS3                            00000003
CKPPS4                            00000004
CKPS0                             00000004
CKPS1                             00000005
CKPS2                             00000006
CKSYNC                            00000005
CLC1CON                           00000F10
CLC1GLS0                          00000F16
CLC1GLS1                          00000F17
CLC1GLS2                          00000F18
CLC1GLS3                          00000F19
CLC1IE                            00000000
CLC1IF                            00000000
CLC1POL                           00000F11
CLC1SEL0                          00000F12
CLC1SEL1                          00000F13
CLC1SEL2                          00000F14
CLC1SEL3                          00000F15
CLC2CON                           00000F1A
CLC2GLS0                          00000F20
CLC2GLS1                          00000F21
CLC2GLS2                          00000F22
CLC2GLS3                          00000F23
CLC2IE                            00000001
CLC2IF                            00000001
CLC2POL                           00000F1B
CLC2SEL0                          00000F1C
CLC2SEL1                          00000F1D
CLC2SEL2                          00000F1E
CLC2SEL3                          00000F1F
CLC3CON                           00000F24
CLC3GLS0                          00000F2A
CLC3GLS1                          00000F2B
CLC3GLS2                          00000F2C
CLC3GLS3                          00000F2D
CLC3IE                            00000002
CLC3IF                            00000002
CLC3POL                           00000F25
MPASM 5.77                        WS2813.ASM   8-13-2018  12:11:19         PAGE 40


SYMBOL TABLE
  LABEL                             VALUE 

CLC3SEL0                          00000F26
CLC3SEL1                          00000F27
CLC3SEL2                          00000F28
CLC3SEL3                          00000F29
CLC4CON                           00000F2E
CLC4GLS0                          00000F34
CLC4GLS1                          00000F35
CLC4GLS2                          00000F36
CLC4GLS3                          00000F37
CLC4IE                            00000003
CLC4IF                            00000003
CLC4POL                           00000F2F
CLC4SEL0                          00000F30
CLC4SEL1                          00000F31
CLC4SEL2                          00000F32
CLC4SEL3                          00000F33
CLCDATA                           00000F0F
CLCIN0PPS                         00000E28
CLCIN0PPS0                        00000000
CLCIN0PPS1                        00000001
CLCIN0PPS2                        00000002
CLCIN0PPS3                        00000003
CLCIN0PPS4                        00000004
CLCIN1PPS                         00000E29
CLCIN1PPS0                        00000000
CLCIN1PPS1                        00000001
CLCIN1PPS2                        00000002
CLCIN1PPS3                        00000003
CLCIN1PPS4                        00000004
CLCIN2PPS                         00000E2A
CLCIN2PPS0                        00000000
CLCIN2PPS1                        00000001
CLCIN2PPS2                        00000002
CLCIN2PPS3                        00000003
CLCIN2PPS4                        00000004
CLCIN3PPS                         00000E2B
CLCIN3PPS0                        00000000
CLCIN3PPS1                        00000001
CLCIN3PPS2                        00000002
CLCIN3PPS3                        00000003
CLCIN3PPS4                        00000004
CM1CON0                           00000111
CM1CON1                           00000112
CM2CON0                           00000113
CM2CON1                           00000114
CMOUT                             00000115
CP1S0                             00000000
CP1S1                             00000001
CP1S2                             00000002
CP2S0                             00000000
CP2S1                             00000001
CP2S2                             00000002
CP3S0                             00000000
MPASM 5.77                        WS2813.ASM   8-13-2018  12:11:19         PAGE 41


SYMBOL TABLE
  LABEL                             VALUE 

CP3S1                             00000001
CP3S2                             00000002
CPOL                              00000002
CPRUP                             00000007
CPWUP                             00000006
CPYFF                             
CRCACC                            00000793
CRCACC0                           00000000
CRCACC1                           00000001
CRCACC10                          00000002
CRCACC11                          00000003
CRCACC12                          00000004
CRCACC13                          00000005
CRCACC14                          00000006
CRCACC15                          00000007
CRCACC2                           00000002
CRCACC3                           00000003
CRCACC4                           00000004
CRCACC5                           00000005
CRCACC6                           00000006
CRCACC7                           00000007
CRCACC8                           00000000
CRCACC9                           00000001
CRCACCH                           00000794
CRCACCL                           00000793
CRCACCM                           00000004
CRCBUSY                           00000005
CRCCON0                           00000799
CRCCON1                           0000079A
CRCDAT                            00000791
CRCDAT0                           00000000
CRCDAT1                           00000001
CRCDAT10                          00000002
CRCDAT11                          00000003
CRCDAT12                          00000004
CRCDAT13                          00000005
CRCDAT14                          00000006
CRCDAT15                          00000007
CRCDAT2                           00000002
CRCDAT3                           00000003
CRCDAT4                           00000004
CRCDAT5                           00000005
CRCDAT6                           00000006
CRCDAT8                           00000000
CRCDAT9                           00000001
CRCDATH                           00000792
CRCDATL                           00000791
CRCDLEN0                          00000004
CRCDLEN1                          00000005
CRCDLEN2                          00000006
CRCDLEN3                          00000007
CRCEN                             00000007
CRCFULL                           00000000
MPASM 5.77                        WS2813.ASM   8-13-2018  12:11:19         PAGE 42


SYMBOL TABLE
  LABEL                             VALUE 

CRCGO                             00000006
CRCIE                             00000006
CRCIF                             00000006
CRCPLEN0                          00000000
CRCPLEN1                          00000001
CRCPLEN2                          00000002
CRCPLEN3                          00000003
CRCSHIFT                          00000795
CRCSHIFT0                         00000000
CRCSHIFT1                         00000001
CRCSHIFT10                        00000002
CRCSHIFT11                        00000003
CRCSHIFT12                        00000004
CRCSHIFT13                        00000005
CRCSHIFT14                        00000006
CRCSHIFT15                        00000007
CRCSHIFT2                         00000002
CRCSHIFT3                         00000003
CRCSHIFT4                         00000004
CRCSHIFT5                         00000005
CRCSHIFT6                         00000006
CRCSHIFT7                         00000007
CRCSHIFT8                         00000000
CRCSHIFT9                         00000001
CRCSHIFTH                         00000796
CRCSHIFTL                         00000795
CRCSHIFTM                         00000001
CRCXOR                            00000797
CRCXOR1                           00000001
CRCXOR10                          00000002
CRCXOR11                          00000003
CRCXOR12                          00000004
CRCXOR13                          00000005
CRCXOR14                          00000006
CRCXOR15                          00000007
CRCXOR2                           00000002
CRCXOR3                           00000003
CRCXOR4                           00000004
CRCXOR5                           00000005
CRCXOR6                           00000006
CRCXOR7                           00000007
CRCXOR8                           00000000
CRCXOR9                           00000001
CRCXORH                           00000798
CRCXORL                           00000797
CRDCDAT7                          00000007
CREN                              00000004
CS                                00000000
CS0                               00000000
CS1                               00000001
CS2                               00000002
CS3                               00000003
CSEL0                             00000000
MPASM 5.77                        WS2813.ASM   8-13-2018  12:11:19         PAGE 43


SYMBOL TABLE
  LABEL                             VALUE 

CSEL1                             00000001
CSEL2                             00000002
CSRC                              00000007
CTS0                              00000000
CTS1                              00000001
CTS2                              00000002
CWG1AS0                           00000693
CWG1AS1                           00000694
CWG1C1AS                          00000001
CWG1C2AS                          00000002
CWG1CLKCON                        00000699
CWG1CON0                          00000696
CWG1CON1                          00000697
CWG1CS                            00000000
CWG1DBF                           00000692
CWG1DBF0                          00000000
CWG1DBF1                          00000001
CWG1DBF2                          00000002
CWG1DBF3                          00000003
CWG1DBF4                          00000004
CWG1DBF5                          00000005
CWG1DBR                           00000691
CWG1DBR0                          00000000
CWG1DBR1                          00000001
CWG1DBR2                          00000002
CWG1DBR3                          00000003
CWG1DBR4                          00000004
CWG1DBR5                          00000005
CWG1EN                            00000007
CWG1IN                            00000005
CWG1INAS                          00000000
CWG1IS0                           00000000
CWG1IS1                           00000001
CWG1IS2                           00000002
CWG1IS3                           00000003
CWG1ISM                           0000069A
CWG1LD                            00000006
CWG1LSAC0                         00000002
CWG1LSAC1                         00000003
CWG1LSBD0                         00000004
CWG1LSBD1                         00000005
CWG1MODE0                         00000000
CWG1MODE1                         00000001
CWG1MODE2                         00000002
CWG1OCON0                         00000695
CWG1OVRA                          00000004
CWG1OVRB                          00000005
CWG1OVRC                          00000006
CWG1OVRD                          00000007
CWG1POLA                          00000000
CWG1POLB                          00000001
CWG1POLC                          00000002
CWG1POLD                          00000003
MPASM 5.77                        WS2813.ASM   8-13-2018  12:11:19         PAGE 44


SYMBOL TABLE
  LABEL                             VALUE 

CWG1REN                           00000006
CWG1SHUTDOWN                      00000007
CWG1STRA                          00000000
CWG1STRB                          00000001
CWG1STRC                          00000002
CWG1STRD                          00000003
CWG1TMR2AS                        00000004
CWG1TMR4AS                        00000005
CWG1TMR6AS                        00000006
CWGIE                             00000005
CWGIF                             00000005
CWGINPPS                          00000E17
CWGINPPS0                         00000000
CWGINPPS1                         00000001
CWGINPPS2                         00000002
CWGINPPS3                         00000003
CWGINPPS4                         00000004
C_SHAD                            00000000
D1N                               00000000
D1PSS0                            00000002
D1PSS1                            00000003
D1S0                              00000000
D1S1                              00000001
D1S2                              00000002
D1S3                              00000003
D1S4                              00000004
D1S5                              00000005
D1T                               00000001
D2N                               00000002
D2S0                              00000000
D2S1                              00000001
D2S2                              00000002
D2S3                              00000003
D2S4                              00000004
D2S5                              00000005
D2T                               00000003
D3N                               00000004
D3S0                              00000000
D3S1                              00000001
D3S2                              00000002
D3S3                              00000003
D3S4                              00000004
D3S5                              00000005
D3T                               00000005
D4N                               00000006
D4S0                              00000000
D4S1                              00000001
D4S2                              00000002
D4S3                              00000003
D4S4                              00000004
D4S5                              00000005
D4T                               00000007
DAC1CON0                          00000118
MPASM 5.77                        WS2813.ASM   8-13-2018  12:11:19         PAGE 45


SYMBOL TABLE
  LABEL                             VALUE 

DAC1CON1                          00000119
DAC1EN                            00000007
DAC1OE                            00000005
DAC1R0                            00000000
DAC1R1                            00000001
DAC1R2                            00000002
DAC1R3                            00000003
DAC1R4                            00000004
DAC1R5                            00000005
DAC1R6                            00000006
DAC1R7                            00000007
DAT0                              00000000
DAT1                              00000001
DAT10                             00000002
DAT11                             00000003
DAT12                             00000004
DAT13                             00000005
DAT14                             00000006
DAT15                             00000007
DAT2                              00000002
DAT3                              00000003
DAT4                              00000004
DAT5                              00000005
DAT6                              00000006
DAT7                              00000007
DAT8                              00000000
DAT9                              00000001
DBF0                              00000000
DBF1                              00000001
DBF2                              00000002
DBF3                              00000003
DBF4                              00000004
DBF5                              00000005
DBR0                              00000000
DBR1                              00000001
DBR2                              00000002
DBR3                              00000003
DBR4                              00000004
DBR5                              00000005
DC                                00000001
DC0                               00000006
DC1                               00000007
DC2                               00000000
DC3                               00000001
DC4                               00000002
DC5                               00000003
DC6                               00000004
DC7                               00000005
DC8                               00000006
DC9                               00000007
DC_SHAD                           00000001
DELAY                             00000166
DHEN                              00000000
MPASM 5.77                        WS2813.ASM   8-13-2018  12:11:19         PAGE 46


SYMBOL TABLE
  LABEL                             VALUE 

DLEN0                             00000004
DLEN1                             00000005
DLEN2                             00000006
DLEN3                             00000007
DONE                              00000171
D_NOT_A                           00000005
EN                                00000007
ERR0                              00000000
ERR1                              00000001
ERR10                             00000002
ERR11                             00000003
ERR12                             00000004
ERR13                             00000005
ERR14                             00000006
ERR15                             00000007
ERR2                              00000002
ERR3                              00000003
ERR4                              00000004
ERR5                              00000005
ERR6                              00000006
ERR7                              00000007
ERR8                              00000000
ERR9                              00000001
ERRH0                             00000000
ERRH1                             00000001
ERRH2                             00000002
ERRH3                             00000003
ERRH4                             00000004
ERRH5                             00000005
ERRH6                             00000006
ERRH7                             00000007
ERRL0                             00000000
ERRL1                             00000001
ERRL2                             00000002
ERRL3                             00000003
ERRL4                             00000004
ERRL5                             00000005
ERRL6                             00000006
ERRL7                             00000007
F                                 00000001
FERR                              00000002
FMT                               00000004
FRAMECOUNT                        00000123
FREE                              00000004
FSR0                              00000004
FSR0H                             00000005
FSR0H_SHAD                        00000FE9
FSR0L                             00000004
FSR0L_SHAD                        00000FE8
FSR1                              00000006
FSR1H                             00000007
FSR1H_SHAD                        00000FEB
FSR1L                             00000006
MPASM 5.77                        WS2813.ASM   8-13-2018  12:11:19         PAGE 47


SYMBOL TABLE
  LABEL                             VALUE 

FSR1L_SHAD                        00000FEA
FULL                              00000000
FVRCON                            00000117
FVREN                             00000007
FVRRDY                            00000006
G1EN                              00000007
G1POL                             00000000
G2POL                             00000001
G3POL                             00000002
G4D1N                             00000000
G4D1T                             00000001
G4D2N                             00000002
G4D2T                             00000003
G4D3N                             00000004
G4D3T                             00000005
G4D4N                             00000006
G4D4T                             00000007
G4POL                             00000003
GCEN                              00000007
GIE                               00000007
GO                                00000001
GO_NOT_DONE                       00000001
GREEN_SPECTRUM_CH                 3
HADR0                             00000000
HADR1                             00000001
HADR10                            00000002
HADR11                            00000003
HADR12                            00000004
HADR13                            00000005
HADR14                            00000006
HADR15                            00000007
HADR3                             00000003
HADR4                             00000004
HADR5                             00000005
HADR6                             00000006
HADR7                             00000007
HADR8                             00000000
HADR9                             00000001
HARD2                             00000002
HFIOFL                            00000003
HFIOFR                            00000004
HFIOFS                            00000000
HIDC4                             00000004
HIDC5                             00000005
HIDRVC                            0000040E
IL                                0000016E
IN                                00000005
IN0                               00000000
IN1                               00000001
IN10                              00000002
IN11                              00000003
IN12                              00000004
IN13                              00000005
MPASM 5.77                        WS2813.ASM   8-13-2018  12:11:19         PAGE 48


SYMBOL TABLE
  LABEL                             VALUE 

IN14                              00000006
IN15                              00000007
IN2                               00000002
IN3                               00000003
IN4                               00000004
IN5                               00000005
IN6                               00000006
IN7                               00000007
IN8                               00000000
IN9                               00000001
INAS                              00000000
INDF0                             00000000
INDF1                             00000001
INITIAL                           00000000
INLVLA                            0000038C
INLVLA0                           00000000
INLVLA1                           00000001
INLVLA2                           00000002
INLVLA3                           00000003
INLVLA4                           00000004
INLVLA5                           00000005
INLVLC                            0000038E
INLVLC0                           00000000
INLVLC1                           00000001
INLVLC2                           00000002
INLVLC3                           00000003
INLVLC4                           00000004
INLVLC5                           00000005
INTCON                            0000000B
INTE                              00000004
INTEDG                            00000006
INTF                              00000001
INTM                              00000003
INTN                              00000003
INTP                              00000004
INTPPS                            00000E10
INTPPS0                           00000000
INTPPS1                           00000001
INTPPS2                           00000002
INTPPS3                           00000003
INTPPS4                           00000004
INVALID                           00000004
IOCAF                             00000393
IOCAF0                            00000000
IOCAF1                            00000001
IOCAF2                            00000002
IOCAF3                            00000003
IOCAF4                            00000004
IOCAF5                            00000005
IOCAN                             00000392
IOCAN0                            00000000
IOCAN1                            00000001
IOCAN2                            00000002
MPASM 5.77                        WS2813.ASM   8-13-2018  12:11:19         PAGE 49


SYMBOL TABLE
  LABEL                             VALUE 

IOCAN3                            00000003
IOCAN4                            00000004
IOCAN5                            00000005
IOCAP                             00000391
IOCAP0                            00000000
IOCAP1                            00000001
IOCAP2                            00000002
IOCAP3                            00000003
IOCAP4                            00000004
IOCAP5                            00000005
IOCCF                             00000399
IOCCF0                            00000000
IOCCF1                            00000001
IOCCF2                            00000002
IOCCF3                            00000003
IOCCF4                            00000004
IOCCF5                            00000005
IOCCF6                            00000006
IOCCF7                            00000007
IOCCN                             00000398
IOCCN0                            00000000
IOCCN1                            00000001
IOCCN2                            00000002
IOCCN3                            00000003
IOCCN4                            00000004
IOCCN5                            00000005
IOCCN6                            00000006
IOCCN7                            00000007
IOCCP                             00000397
IOCCP0                            00000000
IOCCP1                            00000001
IOCCP2                            00000002
IOCCP3                            00000003
IOCCP4                            00000004
IOCCP5                            00000005
IOCCP6                            00000006
IOCCP7                            00000007
IOCIE                             00000003
IOCIF                             00000000
IRCF0                             00000003
IRCF1                             00000004
IRCF2                             00000005
IRCF3                             00000006
IS0                               00000000
IS1                               00000001
IS2                               00000002
IS3                               00000003
K10                               00000000
K11                               00000001
K110                              00000002
K111                              00000003
K112                              00000004
K113                              00000005
MPASM 5.77                        WS2813.ASM   8-13-2018  12:11:19         PAGE 50


SYMBOL TABLE
  LABEL                             VALUE 

K114                              00000006
K115                              00000007
K12                               00000002
K13                               00000003
K14                               00000004
K15                               00000005
K16                               00000006
K17                               00000007
K18                               00000000
K19                               00000001
K20                               00000000
K21                               00000001
K210                              00000002
K211                              00000003
K212                              00000004
K213                              00000005
K214                              00000006
K215                              00000007
K22                               00000002
K23                               00000003
K24                               00000004
K25                               00000005
K26                               00000006
K27                               00000007
K28                               00000000
K29                               00000001
K30                               00000000
K31                               00000001
K310                              00000002
K311                              00000003
K312                              00000004
K313                              00000005
K314                              00000006
K315                              00000007
K32                               00000002
K33                               00000003
K34                               00000004
K35                               00000005
K36                               00000006
K37                               00000007
K38                               00000000
K39                               00000001
LADR10                            00000002
LADR11                            00000003
LADR12                            00000004
LADR13                            00000005
LADR14                            00000006
LADR15                            00000007
LADR2                             00000002
LADR3                             00000003
LADR4                             00000004
LADR5                             00000005
LADR6                             00000006
MPASM 5.77                        WS2813.ASM   8-13-2018  12:11:19         PAGE 51


SYMBOL TABLE
  LABEL                             VALUE 

LADR7                             00000007
LADR8                             00000000
LADR9                             00000001
LATA                              0000010C
LATA0                             00000000
LATA1                             00000001
LATA2                             00000002
LATA3                             00000003
LATA4                             00000004
LATA5                             00000005
LATC                              0000010E
LATC0                             00000000
LATC1                             00000001
LATC2                             00000002
LATC3                             00000003
LATC4                             00000004
LATC5                             00000005
LC1D1S0                           00000000
LC1D1S1                           00000001
LC1D1S2                           00000002
LC1D1S3                           00000003
LC1D1S4                           00000004
LC1D1S5                           00000005
LC1D2S0                           00000000
LC1D2S1                           00000001
LC1D2S2                           00000002
LC1D2S3                           00000003
LC1D2S4                           00000004
LC1D2S5                           00000005
LC1D3S0                           00000000
LC1D3S1                           00000001
LC1D3S2                           00000002
LC1D3S3                           00000003
LC1D3S4                           00000004
LC1D3S5                           00000005
LC1D4S0                           00000000
LC1D4S1                           00000001
LC1D4S2                           00000002
LC1D4S3                           00000003
LC1D4S4                           00000004
LC1D4S5                           00000005
LC1EN                             00000007
LC1G1D1N                          00000000
LC1G1D1T                          00000001
LC1G1D2N                          00000002
LC1G1D2T                          00000003
LC1G1D3N                          00000004
LC1G1D3T                          00000005
LC1G1D4N                          00000006
LC1G1D4T                          00000007
LC1G1POL                          00000000
LC1G2D1N                          00000000
LC1G2D1T                          00000001
MPASM 5.77                        WS2813.ASM   8-13-2018  12:11:19         PAGE 52


SYMBOL TABLE
  LABEL                             VALUE 

LC1G2D2N                          00000002
LC1G2D2T                          00000003
LC1G2D3N                          00000004
LC1G2D3T                          00000005
LC1G2D4N                          00000006
LC1G2D4T                          00000007
LC1G2POL                          00000001
LC1G3D1N                          00000000
LC1G3D1T                          00000001
LC1G3D2N                          00000002
LC1G3D2T                          00000003
LC1G3D3N                          00000004
LC1G3D3T                          00000005
LC1G3D4N                          00000006
LC1G3D4T                          00000007
LC1G3POL                          00000002
LC1G4D1N                          00000000
LC1G4D1T                          00000001
LC1G4D2N                          00000002
LC1G4D2T                          00000003
LC1G4D3N                          00000004
LC1G4D3T                          00000005
LC1G4D4N                          00000006
LC1G4D4T                          00000007
LC1G4POL                          00000003
LC1INTN                           00000003
LC1INTP                           00000004
LC1MODE0                          00000000
LC1MODE1                          00000001
LC1MODE2                          00000002
LC1OUT                            00000005
LC1POL                            00000007
LC2D1S0                           00000000
LC2D1S1                           00000001
LC2D1S2                           00000002
LC2D1S3                           00000003
LC2D1S4                           00000004
LC2D1S5                           00000005
LC2D2S0                           00000000
LC2D2S1                           00000001
LC2D2S2                           00000002
LC2D2S3                           00000003
LC2D2S4                           00000004
LC2D2S5                           00000005
LC2D3S0                           00000000
LC2D3S1                           00000001
LC2D3S2                           00000002
LC2D3S3                           00000003
LC2D3S4                           00000004
LC2D3S5                           00000005
LC2D4S0                           00000000
LC2D4S1                           00000001
LC2D4S2                           00000002
MPASM 5.77                        WS2813.ASM   8-13-2018  12:11:19         PAGE 53


SYMBOL TABLE
  LABEL                             VALUE 

LC2D4S3                           00000003
LC2D4S4                           00000004
LC2D4S5                           00000005
LC2EN                             00000007
LC2G1D1N                          00000000
LC2G1D1T                          00000001
LC2G1D2N                          00000002
LC2G1D2T                          00000003
LC2G1D3N                          00000004
LC2G1D3T                          00000005
LC2G1D4N                          00000006
LC2G1D4T                          00000007
LC2G1POL                          00000000
LC2G2D1N                          00000000
LC2G2D1T                          00000001
LC2G2D2N                          00000002
LC2G2D2T                          00000003
LC2G2D3N                          00000004
LC2G2D3T                          00000005
LC2G2D4N                          00000006
LC2G2D4T                          00000007
LC2G2POL                          00000001
LC2G3D1N                          00000000
LC2G3D1T                          00000001
LC2G3D2N                          00000002
LC2G3D2T                          00000003
LC2G3D3N                          00000004
LC2G3D3T                          00000005
LC2G3D4N                          00000006
LC2G3D4T                          00000007
LC2G3POL                          00000002
LC2G4D1N                          00000000
LC2G4D1T                          00000001
LC2G4D2N                          00000002
LC2G4D2T                          00000003
LC2G4D3N                          00000004
LC2G4D3T                          00000005
LC2G4D4N                          00000006
LC2G4D4T                          00000007
LC2G4POL                          00000003
LC2INTN                           00000003
LC2INTP                           00000004
LC2MODE0                          00000000
LC2MODE1                          00000001
LC2MODE2                          00000002
LC2OUT                            00000005
LC2POL                            00000007
LC3D1S0                           00000000
LC3D1S1                           00000001
LC3D1S2                           00000002
LC3D1S3                           00000003
LC3D1S4                           00000004
LC3D1S5                           00000005
MPASM 5.77                        WS2813.ASM   8-13-2018  12:11:19         PAGE 54


SYMBOL TABLE
  LABEL                             VALUE 

LC3D2S0                           00000000
LC3D2S1                           00000001
LC3D2S2                           00000002
LC3D2S3                           00000003
LC3D2S4                           00000004
LC3D2S5                           00000005
LC3D3S0                           00000000
LC3D3S1                           00000001
LC3D3S2                           00000002
LC3D3S3                           00000003
LC3D3S4                           00000004
LC3D3S5                           00000005
LC3D4S0                           00000000
LC3D4S1                           00000001
LC3D4S2                           00000002
LC3D4S3                           00000003
LC3D4S4                           00000004
LC3D4S5                           00000005
LC3EN                             00000007
LC3G1D1N                          00000000
LC3G1D1T                          00000001
LC3G1D2N                          00000002
LC3G1D2T                          00000003
LC3G1D3N                          00000004
LC3G1D3T                          00000005
LC3G1D4N                          00000006
LC3G1D4T                          00000007
LC3G1POL                          00000000
LC3G2D1N                          00000000
LC3G2D1T                          00000001
LC3G2D2N                          00000002
LC3G2D2T                          00000003
LC3G2D3N                          00000004
LC3G2D3T                          00000005
LC3G2D4N                          00000006
LC3G2D4T                          00000007
LC3G2POL                          00000001
LC3G3D1N                          00000000
LC3G3D1T                          00000001
LC3G3D2N                          00000002
LC3G3D2T                          00000003
LC3G3D3N                          00000004
LC3G3D3T                          00000005
LC3G3D4N                          00000006
LC3G3D4T                          00000007
LC3G3POL                          00000002
LC3G4D1N                          00000000
LC3G4D1T                          00000001
LC3G4D2N                          00000002
LC3G4D2T                          00000003
LC3G4D3N                          00000004
LC3G4D3T                          00000005
LC3G4D4N                          00000006
MPASM 5.77                        WS2813.ASM   8-13-2018  12:11:19         PAGE 55


SYMBOL TABLE
  LABEL                             VALUE 

LC3G4D4T                          00000007
LC3G4POL                          00000003
LC3INTN                           00000003
LC3INTP                           00000004
LC3MODE0                          00000000
LC3MODE1                          00000001
LC3MODE2                          00000002
LC3OUT                            00000005
LC3POL                            00000007
LC4D1S0                           00000000
LC4D1S1                           00000001
LC4D1S2                           00000002
LC4D1S3                           00000003
LC4D1S4                           00000004
LC4D1S5                           00000005
LC4D2S0                           00000000
LC4D2S1                           00000001
LC4D2S2                           00000002
LC4D2S3                           00000003
LC4D2S4                           00000004
LC4D2S5                           00000005
LC4D3S0                           00000000
LC4D3S1                           00000001
LC4D3S2                           00000002
LC4D3S3                           00000003
LC4D3S4                           00000004
LC4D3S5                           00000005
LC4D4S0                           00000000
LC4D4S1                           00000001
LC4D4S2                           00000002
LC4D4S3                           00000003
LC4D4S4                           00000004
LC4D4S5                           00000005
LC4EN                             00000007
LC4G1D1N                          00000000
LC4G1D1T                          00000001
LC4G1D2N                          00000002
LC4G1D2T                          00000003
LC4G1D3N                          00000004
LC4G1D3T                          00000005
LC4G1D4N                          00000006
LC4G1D4T                          00000007
LC4G1POL                          00000000
LC4G2D1N                          00000000
LC4G2D1T                          00000001
LC4G2D2N                          00000002
LC4G2D2T                          00000003
LC4G2D3N                          00000004
LC4G2D3T                          00000005
LC4G2D4N                          00000006
LC4G2D4T                          00000007
LC4G2POL                          00000001
LC4G3D1N                          00000000
MPASM 5.77                        WS2813.ASM   8-13-2018  12:11:19         PAGE 56


SYMBOL TABLE
  LABEL                             VALUE 

LC4G3D1T                          00000001
LC4G3D2N                          00000002
LC4G3D2T                          00000003
LC4G3D3N                          00000004
LC4G3D3T                          00000005
LC4G3D4N                          00000006
LC4G3D4T                          00000007
LC4G3POL                          00000002
LC4G4D1N                          00000000
LC4G4D1T                          00000001
LC4G4D2N                          00000002
LC4G4D2T                          00000003
LC4G4D3N                          00000004
LC4G4D3T                          00000005
LC4G4D4N                          00000006
LC4G4D4T                          00000007
LC4G4POL                          00000003
LC4INTN                           00000003
LC4INTP                           00000004
LC4MODE0                          00000000
LC4MODE1                          00000001
LC4MODE2                          00000002
LC4OUT                            00000005
LC4POL                            00000007
LD                                00000006
LDAR0                             00000000
LDAR1                             00000001
LFIOFR                            00000001
LSAC0                             00000002
LSAC1                             00000003
LSBD0                             00000004
LSBD1                             00000005
LWLO                              00000005
MC1OUT                            00000000
MC2OUT                            00000001
MFIOFR                            00000002
MISS0                             00000000
MISS1                             00000001
MISS10                            00000002
MISS11                            00000003
MISS12                            00000004
MISS13                            00000005
MISS14                            00000006
MISS15                            00000007
MISS2                             00000002
MISS3                             00000003
MISS4                             00000004
MISS5                             00000005
MISS6                             00000006
MISS7                             00000007
MISS8                             00000000
MISS9                             00000001
MLC1OUT                           00000000
MPASM 5.77                        WS2813.ASM   8-13-2018  12:11:19         PAGE 57


SYMBOL TABLE
  LABEL                             VALUE 

MLC2OUT                           00000001
MLC3OUT                           00000002
MLC4OUT                           00000003
MODE                              00000000
MODE0                             00000000
MODE1                             00000001
MODE2                             00000002
MODE3                             00000003
MODE4                             00000004
MOV16                             
MOVLF                             
MOVLF16                           
MPP                               00000002
MSGEQ7_ANSEL_PIN                  ANSA2
MSGEQ7_READ_PIN                   TRISA2
MSGEQ7_RESET                      
MSGEQ7_RESET_PIN                  LATC5
MSGEQ7_STROBE                     
MSGEQ7_STROBE_HIGH                
MSGEQ7_STROBE_LOW                 
MSGEQ7_STROBE_PIN                 LATC3
MSGEQ7_WPU_PIN                    WPUA2
MSK0                              00000000
MSK1                              00000001
MSK2                              00000002
MSK3                              00000003
MSK4                              00000004
MSK5                              00000005
MSK6                              00000006
MSK7                              00000007
NOT_BOR                           00000000
NOT_PD                            00000003
NOT_POR                           00000001
NOT_RI                            00000002
NOT_RMCLR                         00000003
NOT_RWDT                          00000004
NOT_T1SYNC                        00000002
NOT_TO                            00000004
NOT_WDTWV                         00000005
NOT_WPUEN                         00000007
NUM_LEDS                          60
ODA0                              00000000
ODA1                              00000001
ODA2                              00000002
ODA4                              00000004
ODA5                              00000005
ODC0                              00000000
ODC1                              00000001
ODC2                              00000002
ODC3                              00000003
ODC4                              00000004
ODC5                              00000005
ODCONA                            0000028C
MPASM 5.77                        WS2813.ASM   8-13-2018  12:11:19         PAGE 58


SYMBOL TABLE
  LABEL                             VALUE 

ODCONC                            0000028E
OERR                              00000001
OL                                00000169
ON                                00000007
OPTION_REG                        00000095
OSCCON                            00000099
OSCFIE                            00000007
OSCSTAT                           0000009A
OSCTUNE                           00000098
OSFIF                             00000007
OSTS                              00000005
OUT                               00000005
OUT0                              00000000
OUT1                              00000001
OUT10                             00000002
OUT11                             00000003
OUT12                             00000004
OUT13                             00000005
OUT14                             00000006
OUT15                             00000007
OUT16                             00000000
OUT17                             00000001
OUT18                             00000002
OUT19                             00000003
OUT2                              00000002
OUT20                             00000004
OUT21                             00000005
OUT22                             00000006
OUT23                             00000007
OUT24                             00000000
OUT25                             00000001
OUT26                             00000002
OUT27                             00000003
OUT28                             00000004
OUT29                             00000005
OUT3                              00000003
OUT30                             00000006
OUT31                             00000007
OUT32                             00000000
OUT33                             00000001
OUT34                             00000002
OUT35                             00000003
OUT4                              00000004
OUT5                              00000005
OUT6                              00000006
OUT7                              00000007
OUT8                              00000000
OUT9                              00000001
OUTPS0                            00000000
OUTPS1                            00000001
OUTPS2                            00000002
OUTPS3                            00000003
OVRA                              00000004
MPASM 5.77                        WS2813.ASM   8-13-2018  12:11:19         PAGE 59


SYMBOL TABLE
  LABEL                             VALUE 

OVRB                              00000005
OVRC                              00000006
OVRD                              00000007
P                                 00000004
P3TSEL0                           00000004
P3TSEL1                           00000005
P4TSEL0                           00000006
P4TSEL1                           00000007
PCIE                              00000006
PCL                               00000002
PCLATH                            0000000A
PCLATH_SHAD                       00000FE7
PCON                              00000096
PEIE                              00000006
PEN                               00000002
PER0                              00000000
PER1                              00000001
PER10                             00000002
PER11                             00000003
PER12                             00000004
PER13                             00000005
PER14                             00000006
PER15                             00000007
PER2                              00000002
PER3                              00000003
PER4                              00000004
PER5                              00000005
PER6                              00000006
PER7                              00000007
PER8                              00000000
PER9                              00000001
PERH0                             00000000
PERH1                             00000001
PERH2                             00000002
PERH3                             00000003
PERH4                             00000004
PERH5                             00000005
PERH6                             00000006
PERH7                             00000007
PERL0                             00000000
PERL1                             00000001
PERL2                             00000002
PERL3                             00000003
PERL4                             00000004
PERL5                             00000005
PERL6                             00000006
PERL7                             00000007
PHP                               00000006
PHS0                              00000000
PHS1                              00000001
PHS2                              00000002
PHS3                              00000003
PHS4                              00000004
MPASM 5.77                        WS2813.ASM   8-13-2018  12:11:19         PAGE 60


SYMBOL TABLE
  LABEL                             VALUE 

PHS5                              00000005
PHS6                              00000006
PHS7                              00000007
PHS8                              00000000
PHS9                              00000001
PHSL8                             00000000
PHSL9                             00000001
PID1ACC                           0000060F
PID1ACC0                          00000000
PID1ACC1                          00000001
PID1ACC10                         00000002
PID1ACC11                         00000003
PID1ACC12                         00000004
PID1ACC13                         00000005
PID1ACC14                         00000006
PID1ACC15                         00000007
PID1ACC16                         00000000
PID1ACC17                         00000001
PID1ACC18                         00000002
PID1ACC19                         00000003
PID1ACC2                          00000002
PID1ACC20                         00000004
PID1ACC21                         00000005
PID1ACC22                         00000006
PID1ACC23                         00000007
PID1ACC24                         00000000
PID1ACC25                         00000001
PID1ACC26                         00000002
PID1ACC27                         00000003
PID1ACC28                         00000004
PID1ACC29                         00000005
PID1ACC3                          00000003
PID1ACC30                         00000006
PID1ACC31                         00000007
PID1ACC32                         00000000
PID1ACC33                         00000001
PID1ACC34                         00000002
PID1ACC4                          00000004
PID1ACC5                          00000005
PID1ACC6                          00000006
PID1ACC7                          00000007
PID1ACC8                          00000000
PID1ACC9                          00000001
PID1ACCHH                         00000612
PID1ACCHL                         00000611
PID1ACCLH                         00000610
PID1ACCLL                         0000060F
PID1ACCU                          00000613
PID1BUSY                          00000006
PID1CON                           00000614
PID1DIE                           00000000
PID1DIF                           00000000
PID1EIE                           00000001
MPASM 5.77                        WS2813.ASM   8-13-2018  12:11:19         PAGE 61


SYMBOL TABLE
  LABEL                             VALUE 

PID1EIF                           00000001
PID1EN                            00000007
PID1IN                            0000058E
PID1IN0                           00000000
PID1IN1                           00000001
PID1IN10                          00000002
PID1IN11                          00000003
PID1IN12                          00000004
PID1IN13                          00000005
PID1IN14                          00000006
PID1IN15                          00000007
PID1IN2                           00000002
PID1IN3                           00000003
PID1IN4                           00000004
PID1IN5                           00000005
PID1IN6                           00000006
PID1IN7                           00000007
PID1IN8                           00000000
PID1IN9                           00000001
PID1INH                           0000058F
PID1INL                           0000058E
PID1K1                            00000590
PID1K10                           00000000
PID1K11                           00000001
PID1K110                          00000002
PID1K111                          00000003
PID1K112                          00000004
PID1K113                          00000005
PID1K114                          00000006
PID1K115                          00000007
PID1K12                           00000002
PID1K13                           00000003
PID1K14                           00000004
PID1K15                           00000005
PID1K16                           00000006
PID1K17                           00000007
PID1K18                           00000000
PID1K19                           00000001
PID1K1H                           00000591
PID1K1L                           00000590
PID1K2                            00000592
PID1K20                           00000000
PID1K21                           00000001
PID1K210                          00000002
PID1K211                          00000003
PID1K212                          00000004
PID1K213                          00000005
PID1K214                          00000006
PID1K215                          00000007
PID1K22                           00000002
PID1K23                           00000003
PID1K24                           00000004
PID1K25                           00000005
MPASM 5.77                        WS2813.ASM   8-13-2018  12:11:19         PAGE 62


SYMBOL TABLE
  LABEL                             VALUE 

PID1K26                           00000006
PID1K27                           00000007
PID1K28                           00000000
PID1K29                           00000001
PID1K2H                           00000593
PID1K2L                           00000592
PID1K3                            00000594
PID1K30                           00000000
PID1K31                           00000001
PID1K310                          00000002
PID1K311                          00000003
PID1K312                          00000004
PID1K313                          00000005
PID1K314                          00000006
PID1K315                          00000007
PID1K32                           00000002
PID1K33                           00000003
PID1K34                           00000004
PID1K35                           00000005
PID1K36                           00000006
PID1K37                           00000007
PID1K38                           00000000
PID1K39                           00000001
PID1K3H                           00000595
PID1K3L                           00000594
PID1MODE0                         00000000
PID1MODE1                         00000001
PID1MODE2                         00000002
PID1OUT                           00000596
PID1OUT0                          00000000
PID1OUT1                          00000001
PID1OUT10                         00000002
PID1OUT11                         00000003
PID1OUT12                         00000004
PID1OUT13                         00000005
PID1OUT14                         00000006
PID1OUT15                         00000007
PID1OUT16                         00000000
PID1OUT17                         00000001
PID1OUT18                         00000002
PID1OUT19                         00000003
PID1OUT2                          00000002
PID1OUT20                         00000004
PID1OUT21                         00000005
PID1OUT22                         00000006
PID1OUT23                         00000007
PID1OUT24                         00000000
PID1OUT25                         00000001
PID1OUT26                         00000002
PID1OUT27                         00000003
PID1OUT28                         00000004
PID1OUT29                         00000005
PID1OUT3                          00000003
MPASM 5.77                        WS2813.ASM   8-13-2018  12:11:19         PAGE 63


SYMBOL TABLE
  LABEL                             VALUE 

PID1OUT30                         00000006
PID1OUT31                         00000007
PID1OUT32                         00000000
PID1OUT33                         00000001
PID1OUT34                         00000002
PID1OUT35                         00000003
PID1OUT4                          00000004
PID1OUT5                          00000005
PID1OUT6                          00000006
PID1OUT7                          00000007
PID1OUT8                          00000000
PID1OUT9                          00000001
PID1OUTHH                         00000599
PID1OUTHL                         00000598
PID1OUTLH                         00000597
PID1OUTLL                         00000596
PID1OUTU                          0000059A
PID1SET                           0000058C
PID1SET0                          00000000
PID1SET1                          00000001
PID1SET10                         00000002
PID1SET11                         00000003
PID1SET12                         00000004
PID1SET13                         00000005
PID1SET14                         00000006
PID1SET15                         00000007
PID1SET2                          00000002
PID1SET3                          00000003
PID1SET4                          00000004
PID1SET5                          00000005
PID1SET6                          00000006
PID1SET7                          00000007
PID1SET8                          00000000
PID1SET9                          00000001
PID1SETH                          0000058D
PID1SETL                          0000058C
PID1Z1                            0000059B
PID1Z10                           00000000
PID1Z11                           00000001
PID1Z110                          00000002
PID1Z111                          00000003
PID1Z112                          00000004
PID1Z113                          00000005
PID1Z114                          00000006
PID1Z115                          00000007
PID1Z116                          00000000
PID1Z12                           00000002
PID1Z13                           00000003
PID1Z14                           00000004
PID1Z15                           00000005
PID1Z16                           00000006
PID1Z17                           00000007
PID1Z18                           00000000
MPASM 5.77                        WS2813.ASM   8-13-2018  12:11:19         PAGE 64


SYMBOL TABLE
  LABEL                             VALUE 

PID1Z19                           00000001
PID1Z1H                           0000059C
PID1Z1L                           0000059B
PID1Z1U                           0000059D
PID1Z2                            0000060C
PID1Z20                           00000000
PID1Z21                           00000001
PID1Z210                          00000002
PID1Z211                          00000003
PID1Z212                          00000004
PID1Z213                          00000005
PID1Z214                          00000006
PID1Z215                          00000007
PID1Z216                          00000000
PID1Z22                           00000002
PID1Z23                           00000003
PID1Z24                           00000004
PID1Z25                           00000005
PID1Z26                           00000006
PID1Z27                           00000007
PID1Z28                           00000000
PID1Z29                           00000001
PID1Z2H                           0000060D
PID1Z2L                           0000060C
PID1Z2U                           0000060E
PIE1                              00000090
PIE2                              00000091
PIE3                              00000092
PIE4                              00000093
PIE5                              00000094
PIR1                              00000010
PIR2                              00000011
PIR3                              00000012
PIR4                              00000013
PIR5                              00000014
PLEN0                             00000000
PLEN1                             00000001
PLEN2                             00000002
PLEN3                             00000003
PLLR                              00000006
PMADR                             00000191
PMADRH                            00000192
PMADRL                            00000191
PMCON1                            00000195
PMCON2                            00000196
PMDAT                             00000193
PMDATH                            00000194
PMDATL                            00000193
POLA                              00000000
POLB                              00000001
POLC                              00000002
POLD                              00000003
POL_AT1CON0                       00000003
MPASM 5.77                        WS2813.ASM   8-13-2018  12:11:19         PAGE 65


SYMBOL TABLE
  LABEL                             VALUE 

POL_CLC1POL                       00000007
POL_CLC2POL                       00000007
POL_CLC3POL                       00000007
POL_CLC4POL                       00000007
POL_PWM3CON                       00000004
POL_PWM4CON                       00000004
PORTA                             0000000C
PORTC                             0000000E
PPSLOCK                           00000E0F
PPSLOCKED                         00000000
PR2                               0000001B
PR4                               00000414
PR6                               0000041B
PREC                              00000006
PRP                               00000004
PS0_AT1CON0                       00000004
PS0_OPTION_REG                    00000000
PS1_AT1CON0                       00000005
PS1_OPTION_REG                    00000001
PS2                               00000002
PSA                               00000003
PSCNT0                            00000000
PSCNT1                            00000001
PSCNT10                           00000002
PSCNT11                           00000003
PSCNT12                           00000004
PSCNT13                           00000005
PSCNT14                           00000006
PSCNT15                           00000007
PSCNT16                           00000000
PSCNT17                           00000001
PSCNT2                            00000002
PSCNT3                            00000003
PSCNT4                            00000004
PSCNT5                            00000005
PSCNT6                            00000006
PSCNT7                            00000007
PSCNT8                            00000000
PSCNT9                            00000001
PSYNC                             00000007
PWM3CON                           00000619
PWM3DC0                           00000006
PWM3DC1                           00000007
PWM3DC2                           00000000
PWM3DC3                           00000001
PWM3DC4                           00000002
PWM3DC5                           00000003
PWM3DC6                           00000004
PWM3DC7                           00000005
PWM3DC8                           00000006
PWM3DC9                           00000007
PWM3DCH                           00000618
PWM3DCL                           00000617
MPASM 5.77                        WS2813.ASM   8-13-2018  12:11:19         PAGE 66


SYMBOL TABLE
  LABEL                             VALUE 

PWM3EN                            00000007
PWM3OUT                           00000005
PWM3POL                           00000004
PWM4CON                           0000061C
PWM4DC0                           00000006
PWM4DC1                           00000007
PWM4DC2                           00000000
PWM4DC3                           00000001
PWM4DC4                           00000002
PWM4DC5                           00000003
PWM4DC6                           00000004
PWM4DC7                           00000005
PWM4DC8                           00000006
PWM4DC9                           00000007
PWM4DCH                           0000061B
PWM4DCL                           0000061A
PWM4EN                            00000007
PWM4OUT                           00000005
PWM4POL                           00000004
PWMPW0                            00000006
PWMPW1                            00000007
PWMPW2                            00000000
PWMPW3                            00000001
PWMPW4                            00000002
PWMPW5                            00000003
PWMPW6                            00000004
PWMPW7                            00000005
PWMPW8                            00000006
PWMPW9                            00000007
RA0                               00000000
RA0PPS                            00000E90
RA0PPS0                           00000000
RA0PPS1                           00000001
RA0PPS2                           00000002
RA0PPS3                           00000003
RA0PPS4                           00000004
RA1                               00000001
RA1PPS                            00000E91
RA1PPS0                           00000000
RA1PPS1                           00000001
RA1PPS2                           00000002
RA1PPS3                           00000003
RA1PPS4                           00000004
RA2                               00000002
RA2PPS                            00000E92
RA2PPS0                           00000000
RA2PPS1                           00000001
RA2PPS2                           00000002
RA2PPS3                           00000003
RA2PPS4                           00000004
RA3                               00000003
RA4                               00000004
RA4PPS                            00000E94
MPASM 5.77                        WS2813.ASM   8-13-2018  12:11:19         PAGE 67


SYMBOL TABLE
  LABEL                             VALUE 

RA4PPS0                           00000000
RA4PPS1                           00000001
RA4PPS2                           00000002
RA4PPS3                           00000003
RA4PPS4                           00000004
RA5                               00000005
RA5PPS                            00000E95
RA5PPS0                           00000000
RA5PPS1                           00000001
RA5PPS2                           00000002
RA5PPS3                           00000003
RA5PPS4                           00000004
RC0                               00000000
RC0PPS                            00000EA0
RC0PPS0                           00000000
RC0PPS1                           00000001
RC0PPS2                           00000002
RC0PPS3                           00000003
RC0PPS4                           00000004
RC1                               00000001
RC1PPS                            00000EA1
RC1PPS0                           00000000
RC1PPS1                           00000001
RC1PPS2                           00000002
RC1PPS3                           00000003
RC1PPS4                           00000004
RC1REG                            00000199
RC1STA                            0000019D
RC2                               00000002
RC2PPS                            00000EA2
RC2PPS0                           00000000
RC2PPS1                           00000001
RC2PPS2                           00000002
RC2PPS3                           00000003
RC2PPS4                           00000004
RC3                               00000003
RC3PPS                            00000EA3
RC3PPS0                           00000000
RC3PPS1                           00000001
RC3PPS2                           00000002
RC3PPS3                           00000003
RC3PPS4                           00000004
RC4                               00000004
RC4PPS                            00000EA4
RC4PPS0                           00000000
RC4PPS1                           00000001
RC4PPS2                           00000002
RC4PPS3                           00000003
RC4PPS4                           00000004
RC5                               00000005
RC5PPS                            00000EA5
RC5PPS0                           00000000
RC5PPS1                           00000001
MPASM 5.77                        WS2813.ASM   8-13-2018  12:11:19         PAGE 68


SYMBOL TABLE
  LABEL                             VALUE 

RC5PPS2                           00000002
RC5PPS3                           00000003
RC5PPS4                           00000004
RCEN                              00000003
RCIDL                             00000006
RCIE                              00000005
RCIF                              00000005
RCREG                             00000199
RCREG1                            00000199
RCSTA                             0000019D
RCSTA1                            0000019D
RD                                00000000
READ_ADC                          
READ_SETTLE                       
RED_SPECTRUM_CH                   1
REN                               00000006
RENDER_LOOP                       00000038
REPEAT                            00000006
RES0                              00000000
RES1                              00000001
RES2                              00000002
RES3                              00000003
RES4                              00000004
RES5                              00000005
RES6                              00000006
RES7                              00000007
RES8                              00000000
RES9                              00000001
RSEL0                             00000000
RSEL1                             00000001
RSEL2                             00000002
RSEL3                             00000003
RSEN                              00000001
RSHIFT16                          00000368
RST                               00000005
RX9                               00000006
RX9D                              00000000
RXPPS                             00000E24
RXPPS0                            00000000
RXPPS1                            00000001
RXPPS2                            00000002
RXPPS3                            00000003
RXPPS4                            00000004
R_NOT_W                           00000002
S                                 00000003
SBCDE                             00000002
SBOREN                            00000007
SCANBUSY                          00000005
SCANCON0                          0000071C
SCANEN                            00000007
SCANGO                            00000006
SCANHADR                          0000071A
SCANHADR0                         00000000
MPASM 5.77                        WS2813.ASM   8-13-2018  12:11:19         PAGE 69


SYMBOL TABLE
  LABEL                             VALUE 

SCANHADR1                         00000001
SCANHADR10                        00000002
SCANHADR11                        00000003
SCANHADR12                        00000004
SCANHADR13                        00000005
SCANHADR14                        00000006
SCANHADR15                        00000007
SCANHADR2                         00000002
SCANHADR3                         00000003
SCANHADR4                         00000004
SCANHADR5                         00000005
SCANHADR6                         00000006
SCANHADR7                         00000007
SCANHADR8                         00000000
SCANHADR9                         00000001
SCANHADRH                         0000071B
SCANHADRL                         0000071A
SCANIE                            00000007
SCANIF                            00000007
SCANINTM                          00000003
SCANINVALID                       00000004
SCANLADR                          00000718
SCANLADR0                         00000000
SCANLADR1                         00000001
SCANLADR10                        00000002
SCANLADR11                        00000003
SCANLADR12                        00000004
SCANLADR13                        00000005
SCANLADR14                        00000006
SCANLADR15                        00000007
SCANLADR2                         00000002
SCANLADR3                         00000003
SCANLADR4                         00000004
SCANLADR5                         00000005
SCANLADR6                         00000006
SCANLADR7                         00000007
SCANLADR8                         00000000
SCANLADR9                         00000001
SCANLADRH                         00000719
SCANLADRL                         00000718
SCANMODE0                         00000000
SCANMODE1                         00000001
SCANTRIG                          0000071D
SCANTSEL0                         00000000
SCANTSEL1                         00000001
SCANTSEL2                         00000002
SCANTSEL3                         00000003
SCIE                              00000005
SCKP                              00000004
SCS0                              00000000
SCS1                              00000001
SDAHT                             00000003
SEN                               00000000
MPASM 5.77                        WS2813.ASM   8-13-2018  12:11:19         PAGE 70


SYMBOL TABLE
  LABEL                             VALUE 

SENDB                             00000003
SET0                              00000000
SET1                              00000001
SET10                             00000002
SET11                             00000003
SET12                             00000004
SET13                             00000005
SET14                             00000006
SET15                             00000007
SET2                              00000002
SET3                              00000003
SET4                              00000004
SET5                              00000005
SET6                              00000006
SET7                              00000007
SET8                              00000000
SET9                              00000001
SHIFT0                            00000000
SHIFT1                            00000001
SHIFT10                           00000002
SHIFT11                           00000003
SHIFT12                           00000004
SHIFT13                           00000005
SHIFT14                           00000006
SHIFT15                           00000007
SHIFT2                            00000002
SHIFT3                            00000003
SHIFT4                            00000004
SHIFT5                            00000005
SHIFT6                            00000006
SHIFT7                            00000007
SHIFT8                            00000000
SHIFT9                            00000001
SHIFTM                            00000001
SHIFTNUM                          00000121
SHUTDOWN                          00000007
SLRA0                             00000000
SLRA1                             00000001
SLRA2                             00000002
SLRA4                             00000004
SLRA5                             00000005
SLRC0                             00000000
SLRC1                             00000001
SLRC2                             00000002
SLRC3                             00000003
SLRC4                             00000004
SLRC5                             00000005
SLRCONA                           0000030C
SLRCONC                           0000030E
SMP                               00000007
SMT1AS                            00000000
SMT1CLK                           00000D9B
SMT1CON0                          00000D98
MPASM 5.77                        WS2813.ASM   8-13-2018  12:11:19         PAGE 71


SYMBOL TABLE
  LABEL                             VALUE 

SMT1CON1                          00000D99
SMT1CPR                           00000D8F
SMT1CPR0                          00000000
SMT1CPR1                          00000001
SMT1CPR10                         00000002
SMT1CPR11                         00000003
SMT1CPR12                         00000004
SMT1CPR13                         00000005
SMT1CPR14                         00000006
SMT1CPR15                         00000007
SMT1CPR16                         00000000
SMT1CPR17                         00000001
SMT1CPR18                         00000002
SMT1CPR19                         00000003
SMT1CPR2                          00000002
SMT1CPR20                         00000004
SMT1CPR21                         00000005
SMT1CPR22                         00000006
SMT1CPR23                         00000007
SMT1CPR3                          00000003
SMT1CPR4                          00000004
SMT1CPR5                          00000005
SMT1CPR6                          00000006
SMT1CPR7                          00000007
SMT1CPR8                          00000000
SMT1CPR9                          00000001
SMT1CPRH                          00000D90
SMT1CPRL                          00000D8F
SMT1CPRU                          00000D91
SMT1CPRUP                         00000007
SMT1CPW                           00000D92
SMT1CPW0                          00000000
SMT1CPW1                          00000001
SMT1CPW10                         00000002
SMT1CPW11                         00000003
SMT1CPW12                         00000004
SMT1CPW13                         00000005
SMT1CPW14                         00000006
SMT1CPW15                         00000007
SMT1CPW16                         00000000
SMT1CPW17                         00000001
SMT1CPW18                         00000002
SMT1CPW19                         00000003
SMT1CPW2                          00000002
SMT1CPW20                         00000004
SMT1CPW21                         00000005
SMT1CPW22                         00000006
SMT1CPW23                         00000007
SMT1CPW3                          00000003
SMT1CPW4                          00000004
SMT1CPW5                          00000005
SMT1CPW6                          00000006
SMT1CPW7                          00000007
MPASM 5.77                        WS2813.ASM   8-13-2018  12:11:19         PAGE 72


SYMBOL TABLE
  LABEL                             VALUE 

SMT1CPW8                          00000000
SMT1CPW9                          00000001
SMT1CPWH                          00000D93
SMT1CPWL                          00000D92
SMT1CPWU                          00000D94
SMT1CPWUP                         00000006
SMT1CSEL0                         00000000
SMT1CSEL1                         00000001
SMT1CSEL2                         00000002
SMT1GO                            00000007
SMT1IE                            00000000
SMT1IF                            00000000
SMT1MODE0                         00000000
SMT1MODE1                         00000001
SMT1MODE2                         00000002
SMT1MODE3                         00000003
SMT1PR                            00000D95
SMT1PR0                           00000000
SMT1PR1                           00000001
SMT1PR10                          00000002
SMT1PR11                          00000003
SMT1PR12                          00000004
SMT1PR13                          00000005
SMT1PR14                          00000006
SMT1PR15                          00000007
SMT1PR16                          00000000
SMT1PR17                          00000001
SMT1PR18                          00000002
SMT1PR19                          00000003
SMT1PR2                           00000002
SMT1PR20                          00000004
SMT1PR21                          00000005
SMT1PR22                          00000006
SMT1PR23                          00000007
SMT1PR3                           00000003
SMT1PR4                           00000004
SMT1PR5                           00000005
SMT1PR6                           00000006
SMT1PR7                           00000007
SMT1PR8                           00000000
SMT1PR9                           00000001
SMT1PRAIE                         00000001
SMT1PRAIF                         00000001
SMT1PRH                           00000D96
SMT1PRL                           00000D95
SMT1PRU                           00000D97
SMT1PS0                           00000000
SMT1PS1                           00000001
SMT1PWAIE                         00000002
SMT1PWAIF                         00000002
SMT1REPEAT                        00000006
SMT1RESET                         00000005
SMT1SIG                           00000D9C
MPASM 5.77                        WS2813.ASM   8-13-2018  12:11:19         PAGE 73


SYMBOL TABLE
  LABEL                             VALUE 

SMT1SIGPPS                        00000E26
SMT1SIGPPS0                       00000000
SMT1SIGPPS1                       00000001
SMT1SIGPPS2                       00000002
SMT1SIGPPS3                       00000003
SMT1SIGPPS4                       00000004
SMT1SSEL0                         00000000
SMT1SSEL1                         00000001
SMT1SSEL2                         00000002
SMT1SSEL3                         00000003
SMT1SSEL4                         00000004
SMT1STAT                          00000D9A
SMT1TMR                           00000D8C
SMT1TMR0                          00000000
SMT1TMR1                          00000001
SMT1TMR10                         00000002
SMT1TMR11                         00000003
SMT1TMR12                         00000004
SMT1TMR13                         00000005
SMT1TMR14                         00000006
SMT1TMR15                         00000007
SMT1TMR16                         00000000
SMT1TMR17                         00000001
SMT1TMR18                         00000002
SMT1TMR19                         00000003
SMT1TMR2                          00000002
SMT1TMR20                         00000004
SMT1TMR21                         00000005
SMT1TMR22                         00000006
SMT1TMR23                         00000007
SMT1TMR3                          00000003
SMT1TMR4                          00000004
SMT1TMR5                          00000005
SMT1TMR6                          00000006
SMT1TMR7                          00000007
SMT1TMR8                          00000000
SMT1TMR9                          00000001
SMT1TMRH                          00000D8D
SMT1TMRL                          00000D8C
SMT1TMRU                          00000D8E
SMT1TS                            00000002
SMT1WIN                           00000D9D
SMT1WINPPS                        00000E27
SMT1WS                            00000001
SMT1WSEL0                         00000000
SMT1WSEL1                         00000001
SMT1WSEL2                         00000002
SMT1WSEL3                         00000003
SMT1WSEL4                         00000004
SMT2AS                            00000000
SMT2CLK                           00000DAD
SMT2CON0                          00000DAA
SMT2CON1                          00000DAB
MPASM 5.77                        WS2813.ASM   8-13-2018  12:11:19         PAGE 74


SYMBOL TABLE
  LABEL                             VALUE 

SMT2CPR                           00000DA1
SMT2CPR0                          00000000
SMT2CPR1                          00000001
SMT2CPR10                         00000002
SMT2CPR11                         00000003
SMT2CPR12                         00000004
SMT2CPR13                         00000005
SMT2CPR14                         00000006
SMT2CPR15                         00000007
SMT2CPR16                         00000000
SMT2CPR17                         00000001
SMT2CPR18                         00000002
SMT2CPR19                         00000003
SMT2CPR2                          00000002
SMT2CPR20                         00000004
SMT2CPR21                         00000005
SMT2CPR22                         00000006
SMT2CPR23                         00000007
SMT2CPR3                          00000003
SMT2CPR4                          00000004
SMT2CPR5                          00000005
SMT2CPR6                          00000006
SMT2CPR7                          00000007
SMT2CPR8                          00000000
SMT2CPR9                          00000001
SMT2CPRH                          00000DA2
SMT2CPRL                          00000DA1
SMT2CPRU                          00000DA3
SMT2CPRUP                         00000007
SMT2CPW                           00000DA4
SMT2CPW0                          00000000
SMT2CPW1                          00000001
SMT2CPW10                         00000002
SMT2CPW11                         00000003
SMT2CPW12                         00000004
SMT2CPW13                         00000005
SMT2CPW14                         00000006
SMT2CPW15                         00000007
SMT2CPW16                         00000000
SMT2CPW17                         00000001
SMT2CPW18                         00000002
SMT2CPW19                         00000003
SMT2CPW2                          00000002
SMT2CPW20                         00000004
SMT2CPW21                         00000005
SMT2CPW22                         00000006
SMT2CPW23                         00000007
SMT2CPW3                          00000003
SMT2CPW4                          00000004
SMT2CPW5                          00000005
SMT2CPW6                          00000006
SMT2CPW7                          00000007
SMT2CPW8                          00000000
MPASM 5.77                        WS2813.ASM   8-13-2018  12:11:19         PAGE 75


SYMBOL TABLE
  LABEL                             VALUE 

SMT2CPW9                          00000001
SMT2CPWH                          00000DA5
SMT2CPWL                          00000DA4
SMT2CPWU                          00000DA6
SMT2CPWUP                         00000006
SMT2CSEL0                         00000000
SMT2CSEL1                         00000001
SMT2CSEL2                         00000002
SMT2GO                            00000007
SMT2IE                            00000003
SMT2IF                            00000003
SMT2MODE0                         00000000
SMT2MODE1                         00000001
SMT2MODE2                         00000002
SMT2MODE3                         00000003
SMT2PR                            00000DA7
SMT2PR0                           00000000
SMT2PR1                           00000001
SMT2PR10                          00000002
SMT2PR11                          00000003
SMT2PR12                          00000004
SMT2PR13                          00000005
SMT2PR14                          00000006
SMT2PR15                          00000007
SMT2PR16                          00000000
SMT2PR17                          00000001
SMT2PR18                          00000002
SMT2PR19                          00000003
SMT2PR2                           00000002
SMT2PR20                          00000004
SMT2PR21                          00000005
SMT2PR22                          00000006
SMT2PR23                          00000007
SMT2PR3                           00000003
SMT2PR4                           00000004
SMT2PR5                           00000005
SMT2PR6                           00000006
SMT2PR7                           00000007
SMT2PR8                           00000000
SMT2PR9                           00000001
SMT2PRAIE                         00000004
SMT2PRAIF                         00000004
SMT2PRH                           00000DA8
SMT2PRL                           00000DA7
SMT2PRU                           00000DA9
SMT2PS0                           00000000
SMT2PS1                           00000001
SMT2PWAIE                         00000005
SMT2PWAIF                         00000005
SMT2REPEAT                        00000006
SMT2RESET                         00000005
SMT2SIG                           00000DAE
SMT2SIGPPS                        00000E2C
MPASM 5.77                        WS2813.ASM   8-13-2018  12:11:19         PAGE 76


SYMBOL TABLE
  LABEL                             VALUE 

SMT2SIGPPS0                       00000000
SMT2SIGPPS1                       00000001
SMT2SIGPPS2                       00000002
SMT2SIGPPS3                       00000003
SMT2SIGPPS4                       00000004
SMT2SSEL0                         00000000
SMT2SSEL1                         00000001
SMT2SSEL2                         00000002
SMT2SSEL3                         00000003
SMT2SSEL4                         00000004
SMT2STAT                          00000DAC
SMT2TMR                           00000D9E
SMT2TMR0                          00000000
SMT2TMR1                          00000001
SMT2TMR10                         00000002
SMT2TMR11                         00000003
SMT2TMR12                         00000004
SMT2TMR13                         00000005
SMT2TMR14                         00000006
SMT2TMR15                         00000007
SMT2TMR16                         00000000
SMT2TMR17                         00000001
SMT2TMR18                         00000002
SMT2TMR19                         00000003
SMT2TMR2                          00000002
SMT2TMR20                         00000004
SMT2TMR21                         00000005
SMT2TMR22                         00000006
SMT2TMR23                         00000007
SMT2TMR3                          00000003
SMT2TMR4                          00000004
SMT2TMR5                          00000005
SMT2TMR6                          00000006
SMT2TMR7                          00000007
SMT2TMR8                          00000000
SMT2TMR9                          00000001
SMT2TMRH                          00000D9F
SMT2TMRL                          00000D9E
SMT2TMRU                          00000DA0
SMT2TS                            00000002
SMT2WIN                           00000DAF
SMT2WINPPS                        00000E2D
SMT2WINPPS0                       00000000
SMT2WINPPS1                       00000001
SMT2WINPPS2                       00000002
SMT2WINPPS3                       00000003
SMT2WINPPS4                       00000004
SMT2WS                            00000001
SMT2WSEL0                         00000000
SMT2WSEL1                         00000001
SMT2WSEL2                         00000002
SMT2WSEL3                         00000003
SMT2WSEL4                         00000004
MPASM 5.77                        WS2813.ASM   8-13-2018  12:11:19         PAGE 77


SYMBOL TABLE
  LABEL                             VALUE 

SMTWINPPS0                        00000000
SMTWINPPS1                        00000001
SMTWINPPS2                        00000002
SMTWINPPS3                        00000003
SMTWINPPS4                        00000004
SP1BRG                            0000019B
SP1BRGH                           0000019C
SP1BRGL                           0000019B
SPBRG                             0000019B
SPBRG1                            0000019B
SPBRGH                            0000019C
SPBRGH1                           0000019C
SPBRGL                            0000019B
SPEN                              00000007
SPLLEN                            00000007
SPOL                              00000003
SREN                              00000005
SSEL0                             00000000
SSEL1                             00000001
SSEL2                             00000002
SSEL3                             00000003
SSEL4                             00000004
SSP1ADD                           00000212
SSP1ADD0                          00000000
SSP1ADD1                          00000001
SSP1ADD2                          00000002
SSP1ADD3                          00000003
SSP1ADD4                          00000004
SSP1ADD5                          00000005
SSP1ADD6                          00000006
SSP1ADD7                          00000007
SSP1BUF                           00000211
SSP1BUF0                          00000000
SSP1BUF1                          00000001
SSP1BUF2                          00000002
SSP1BUF3                          00000003
SSP1BUF4                          00000004
SSP1BUF5                          00000005
SSP1BUF6                          00000006
SSP1BUF7                          00000007
SSP1CON                           00000215
SSP1CON1                          00000215
SSP1CON2                          00000216
SSP1CON3                          00000217
SSP1IE                            00000003
SSP1IF                            00000003
SSP1MSK                           00000213
SSP1MSK0                          00000000
SSP1MSK1                          00000001
SSP1MSK2                          00000002
SSP1MSK3                          00000003
SSP1MSK4                          00000004
SSP1MSK5                          00000005
MPASM 5.77                        WS2813.ASM   8-13-2018  12:11:19         PAGE 78


SYMBOL TABLE
  LABEL                             VALUE 

SSP1MSK6                          00000006
SSP1MSK7                          00000007
SSP1STAT                          00000214
SSPADD                            00000212
SSPBUF                            00000211
SSPCLKPPS                         00000E20
SSPCLKPPS0                        00000000
SSPCLKPPS1                        00000001
SSPCLKPPS2                        00000002
SSPCLKPPS3                        00000003
SSPCLKPPS4                        00000004
SSPCON                            00000215
SSPCON1                           00000215
SSPCON2                           00000216
SSPCON3                           00000217
SSPDATPPS                         00000E21
SSPDATPPS0                        00000000
SSPDATPPS1                        00000001
SSPDATPPS2                        00000002
SSPDATPPS3                        00000003
SSPDATPPS4                        00000004
SSPEN                             00000005
SSPM0                             00000000
SSPM1                             00000001
SSPM2                             00000002
SSPM3                             00000003
SSPMSK                            00000213
SSPOV                             00000006
SSPSSPPS                          00000E22
SSPSSPPS0                         00000000
SSPSSPPS1                         00000001
SSPSSPPS2                         00000002
SSPSSPPS3                         00000003
SSPSSPPS4                         00000004
SSPSTAT                           00000214
START                             00000037
STATE                             00000002
STATUS                            00000003
STATUS_SHAD                       00000FE4
STKOVF                            00000007
STKPTR                            00000FED
STKUNF                            00000006
STP                               00000005
STPT0                             00000000
STPT1                             00000001
STPT10                            00000002
STPT11                            00000003
STPT12                            00000004
STPT13                            00000005
STPT14                            00000006
STPT2                             00000002
STPT3                             00000003
STPT4                             00000004
MPASM 5.77                        WS2813.ASM   8-13-2018  12:11:19         PAGE 79


SYMBOL TABLE
  LABEL                             VALUE 

STPT5                             00000005
STPT6                             00000006
STPT7                             00000007
STPT8                             00000000
STPT9                             00000001
STRA                              00000000
STRB                              00000001
STRC                              00000002
STRD                              00000003
SWDTEN                            00000000
SYNC                              00000004
T0CKIPPS                          00000E11
T0CKIPPS0                         00000000
T0CKIPPS1                         00000001
T0CKIPPS2                         00000002
T0CKIPPS3                         00000003
T0CKIPPS4                         00000004
T0CS                              00000005
T0IE                              00000005
T0IF                              00000002
T0SE                              00000004
T1CKIPPS                          00000E12
T1CKIPPS0                         00000000
T1CKIPPS1                         00000001
T1CKIPPS2                         00000002
T1CKIPPS3                         00000003
T1CKIPPS4                         00000004
T1CKPS0                           00000004
T1CKPS1                           00000005
T1CON                             00000018
T1GCON                            00000019
T1GGO_NOT_DONE                    00000003
T1GPOL                            00000006
T1GPPS                            00000E13
T1GPPS0                           00000000
T1GPPS1                           00000001
T1GPPS2                           00000002
T1GPPS3                           00000003
T1GPPS4                           00000004
T1GSPM                            00000004
T1GSS0                            00000000
T1GSS1                            00000001
T1GTM                             00000005
T1GVAL                            00000002
T2CKPOL                           00000006
T2CKPS0                           00000004
T2CKPS1                           00000005
T2CKPS2                           00000006
T2CKSYNC                          00000005
T2CLKCON                          0000001E
T2CON                             0000001C
T2CS0                             00000000
T2CS1                             00000001
MPASM 5.77                        WS2813.ASM   8-13-2018  12:11:19         PAGE 80


SYMBOL TABLE
  LABEL                             VALUE 

T2CS2                             00000002
T2CS3                             00000003
T2HLT                             0000001D
T2MODE0                           00000000
T2MODE1                           00000001
T2MODE2                           00000002
T2MODE3                           00000003
T2MODE4                           00000004
T2ON                              00000007
T2OUTPS0                          00000000
T2OUTPS1                          00000001
T2OUTPS2                          00000002
T2OUTPS3                          00000003
T2PPS                             00000E18
T2PPS0                            00000000
T2PPS1                            00000001
T2PPS2                            00000002
T2PPS3                            00000003
T2PPS4                            00000004
T2PR                              0000001B
T2PSYNC                           00000007
T2RSEL0                           00000000
T2RSEL1                           00000001
T2RSEL2                           00000002
T2RSEL3                           00000003
T2RST                             0000001F
T2TMR                             0000001A
T3CKIPPS                          00000E19
T3CKIPPS0                         00000000
T3CKIPPS1                         00000001
T3CKIPPS2                         00000002
T3CKIPPS3                         00000003
T3CKIPPS4                         00000004
T3CKPS0                           00000004
T3CKPS1                           00000005
T3CON                             00000495
T3GCON                            00000496
T3GGO_NOT_DONE                    00000003
T3GPOL                            00000006
T3GPPS                            00000E1A
T3GPPS0                           00000000
T3GPPS1                           00000001
T3GPPS2                           00000002
T3GPPS3                           00000003
T3GPPS4                           00000004
T3GSPM                            00000004
T3GSS0                            00000000
T3GSS1                            00000001
T3GTM                             00000005
T3GVAL                            00000002
T3SYNC                            00000002
T4CKPOL                           00000006
T4CKPS0                           00000004
MPASM 5.77                        WS2813.ASM   8-13-2018  12:11:19         PAGE 81


SYMBOL TABLE
  LABEL                             VALUE 

T4CKPS1                           00000005
T4CKPS2                           00000006
T4CKSYNC                          00000005
T4CLKCON                          00000417
T4CON                             00000415
T4CS0                             00000000
T4CS1                             00000001
T4CS2                             00000002
T4CS3                             00000003
T4HLT                             00000416
T4MODE0                           00000000
T4MODE1                           00000001
T4MODE2                           00000002
T4MODE3                           00000003
T4MODE4                           00000004
T4ON                              00000007
T4OUTPS0                          00000000
T4OUTPS1                          00000001
T4OUTPS2                          00000002
T4OUTPS3                          00000003
T4PPS                             00000E1B
T4PPS0                            00000000
T4PPS1                            00000001
T4PPS2                            00000002
T4PPS3                            00000003
T4PPS4                            00000004
T4PR                              00000414
T4PSYNC                           00000007
T4RSEL0                           00000000
T4RSEL1                           00000001
T4RSEL2                           00000002
T4RSEL3                           00000003
T4RST                             00000418
T4TMR                             00000413
T5CKIPPS                          00000E1C
T5CKIPPS0                         00000000
T5CKIPPS1                         00000001
T5CKIPPS2                         00000002
T5CKIPPS3                         00000003
T5CKIPPS4                         00000004
T5CKPS0                           00000004
T5CKPS1                           00000005
T5CON                             0000049C
T5GCON                            0000049D
T5GGO_NOT_DONE                    00000003
T5GPOL                            00000006
T5GPPS                            00000E1D
T5GPPS0                           00000000
T5GPPS1                           00000001
T5GPPS2                           00000002
T5GPPS3                           00000003
T5GPPS4                           00000004
T5GSPM                            00000004
MPASM 5.77                        WS2813.ASM   8-13-2018  12:11:19         PAGE 82


SYMBOL TABLE
  LABEL                             VALUE 

T5GSS0                            00000000
T5GSS1                            00000001
T5GTM                             00000005
T5GVAL                            00000002
T5SYNC                            00000002
T6CKPOL                           00000006
T6CKPS0                           00000004
T6CKPS1                           00000005
T6CKPS2                           00000006
T6CKSYNC                          00000005
T6CLKCON                          0000041E
T6CON                             0000041C
T6CS0                             00000000
T6CS1                             00000001
T6CS2                             00000002
T6CS3                             00000003
T6HLT                             0000041D
T6MODE0                           00000000
T6MODE1                           00000001
T6MODE2                           00000002
T6MODE3                           00000003
T6MODE4                           00000004
T6ON                              00000007
T6OUTPS0                          00000000
T6OUTPS1                          00000001
T6OUTPS2                          00000002
T6OUTPS3                          00000003
T6PPS                             00000E1E
T6PPS0                            00000000
T6PPS1                            00000001
T6PPS2                            00000002
T6PPS3                            00000003
T6PPS4                            00000004
T6PR                              0000041B
T6PSYNC                           00000007
T6RSEL0                           00000000
T6RSEL1                           00000001
T6RSEL2                           00000002
T6RSEL3                           00000003
T6RST                             0000041F
T6TMR                             0000041A
TMR0                              00000015
TMR0CS                            00000005
TMR0IE                            00000005
TMR0IF                            00000002
TMR0SE                            00000004
TMR1                              00000016
TMR1CS0                           00000006
TMR1CS1                           00000007
TMR1GE                            00000007
TMR1GIE                           00000007
TMR1GIF                           00000007
TMR1H                             00000017
MPASM 5.77                        WS2813.ASM   8-13-2018  12:11:19         PAGE 83


SYMBOL TABLE
  LABEL                             VALUE 

TMR1IE                            00000000
TMR1IF                            00000000
TMR1L                             00000016
TMR1ON                            00000000
TMR1_DELAY                        
TMR1_OFFSET                       
TMR2                              0000001A
TMR2AS                            00000004
TMR2IE                            00000001
TMR2IF                            00000001
TMR2ON                            00000007
TMR3CS0                           00000006
TMR3CS1                           00000007
TMR3GE                            00000007
TMR3GIE                           00000007
TMR3GIF                           00000007
TMR3H                             00000494
TMR3IE                            00000006
TMR3IF                            00000006
TMR3L                             00000493
TMR3ON                            00000000
TMR4                              00000413
TMR4AS                            00000005
TMR4IE                            00000001
TMR4IF                            00000001
TMR4ON                            00000007
TMR5CS0                           00000006
TMR5CS1                           00000007
TMR5GE                            00000007
TMR5GIE                           00000005
TMR5GIF                           00000005
TMR5H                             0000049B
TMR5IE                            00000004
TMR5IF                            00000004
TMR5L                             0000049A
TMR5ON                            00000000
TMR6                              0000041A
TMR6AS                            00000006
TMR6IE                            00000002
TMR6IF                            00000002
TMR6ON                            00000007
TOSH                              00000FEF
TOSL                              00000FEE
TRIGSEL0                          00000004
TRIGSEL1                          00000005
TRIGSEL2                          00000006
TRIGSEL3                          00000007
TRISA                             0000008C
TRISA0                            00000000
TRISA1                            00000001
TRISA2                            00000002
TRISA3                            00000003
TRISA4                            00000004
MPASM 5.77                        WS2813.ASM   8-13-2018  12:11:19         PAGE 84


SYMBOL TABLE
  LABEL                             VALUE 

TRISA5                            00000005
TRISC                             0000008E
TRISC0                            00000000
TRISC1                            00000001
TRISC2                            00000002
TRISC3                            00000003
TRISC4                            00000004
TRISC5                            00000005
TRMT                              00000001
TS                                00000002
TSEL0                             00000000
TSEL1                             00000001
TSEL2                             00000002
TSEL3                             00000003
TSEN                              00000005
TSRNG                             00000004
TUN0                              00000000
TUN1                              00000001
TUN2                              00000002
TUN3                              00000003
TUN4                              00000004
TUN5                              00000005
TX1REG                            0000019A
TX1STA                            0000019E
TX9                               00000006
TX9D                              00000000
TXEN                              00000005
TXIE                              00000004
TXIF                              00000004
TXREG                             0000019A
TXREG1                            0000019A
TXSTA                             0000019E
TXSTA1                            0000019E
UA                                00000001
VALID                             00000000
VREGCON                           00000197
VREGPM0                           00000000
VREGPM1                           00000001
W                                 00000000
WCOL                              00000007
WCOLOR                            00000129
WDATA                             0000012C
WDTCON0                           00000711
WDTCON1                           00000712
WDTCS0                            00000004
WDTCS1                            00000005
WDTCS2                            00000006
WDTPS0                            00000001
WDTPS1                            00000002
WDTPS2                            00000003
WDTPS3                            00000004
WDTPS4                            00000005
WDTPSCNT0                         00000000
MPASM 5.77                        WS2813.ASM   8-13-2018  12:11:19         PAGE 85


SYMBOL TABLE
  LABEL                             VALUE 

WDTPSCNT1                         00000001
WDTPSCNT10                        00000002
WDTPSCNT11                        00000003
WDTPSCNT12                        00000004
WDTPSCNT13                        00000005
WDTPSCNT14                        00000006
WDTPSCNT15                        00000007
WDTPSCNT16                        00000000
WDTPSCNT17                        00000001
WDTPSCNT2                         00000002
WDTPSCNT3                         00000003
WDTPSCNT4                         00000004
WDTPSCNT5                         00000005
WDTPSCNT6                         00000006
WDTPSCNT7                         00000007
WDTPSCNT8                         00000000
WDTPSCNT9                         00000001
WDTPSH                            00000714
WDTPSL                            00000713
WDTSEN                            00000000
WDTSTATE                          00000002
WDTTMR                            00000715
WDTTMR0                           00000003
WDTTMR1                           00000004
WDTTMR2                           00000005
WDTTMR3                           00000006
WDTTMR4                           00000007
WDTWINDOW0                        00000000
WDTWINDOW1                        00000001
WDTWINDOW2                        00000002
WINDOW0                           00000000
WINDOW1                           00000001
WINDOW2                           00000002
WPOL                              00000004
WPUA                              0000020C
WPUA0                             00000000
WPUA1                             00000001
WPUA2                             00000002
WPUA3                             00000003
WPUA4                             00000004
WPUA5                             00000005
WPUC                              0000020E
WPUC0                             00000000
WPUC1                             00000001
WPUC2                             00000002
WPUC3                             00000003
WPUC4                             00000004
WPUC5                             00000005
WR                                00000001
WREG                              00000009
WREG_SHAD                         00000FE5
WREN                              00000002
WRERR                             00000003
MPASM 5.77                        WS2813.ASM   8-13-2018  12:11:19         PAGE 86


SYMBOL TABLE
  LABEL                             VALUE 

WRITE_COUNT                       00000124
WRITE_FRAME                       0000015A
WRITE_LED                         00000162
WS                                00000001
WS2813_PIN                        LATC4
WS2813_RESET                      00000125
WS2813_RESET_COPY                 00000127
WS2813_WRITE                      00000172
WSEL0                             00000000
WSEL1                             00000001
WSEL2                             00000002
WSEL3                             00000003
WSEL4                             00000004
WUE                               00000001
XOR1                              00000001
XOR10                             00000002
XOR11                             00000003
XOR12                             00000004
XOR13                             00000005
XOR14                             00000006
XOR15                             00000007
XOR2                              00000002
XOR3                              00000003
XOR4                              00000004
XOR5                              00000005
XOR6                              00000006
XOR7                              00000007
XOR8                              00000000
XOR9                              00000001
Z                                 00000002
Z10                               00000000
Z11                               00000001
Z110                              00000002
Z111                              00000003
Z112                              00000004
Z113                              00000005
Z114                              00000006
Z115                              00000007
Z116                              00000000
Z12                               00000002
Z13                               00000003
Z14                               00000004
Z15                               00000005
Z16                               00000006
Z17                               00000007
Z18                               00000000
Z19                               00000001
Z20                               00000000
Z21                               00000001
Z210                              00000002
Z211                              00000003
Z212                              00000004
Z213                              00000005
MPASM 5.77                        WS2813.ASM   8-13-2018  12:11:19         PAGE 87


SYMBOL TABLE
  LABEL                             VALUE 

Z214                              00000006
Z215                              00000007
Z216                              00000000
Z22                               00000002
Z23                               00000003
Z24                               00000004
Z25                               00000005
Z26                               00000006
Z27                               00000007
Z28                               00000000
Z29                               00000001
ZCD1CON                           0000011C
ZCD1EN                            00000007
ZCD1INTN                          00000000
ZCD1INTP                          00000001
ZCD1OUT                           00000005
ZCD1POL                           00000004
ZCDIE                             00000004
ZCDIF                             00000004
Z_SHAD                            00000002
_BOREN_NSLEEP                     00003DFF
_BOREN_OFF                        000039FF
_BOREN_ON                         00003FFF
_BOREN_SBODEN                     00003BFF
_BORV_HI                          00003BFF
_BORV_LO                          00003FFF
_CLKOUTEN_OFF                     00003FFF
_CLKOUTEN_ON                      000037FF
_CONFIG1                          00008007
_CONFIG2                          00008008
_CONFIG3                          00008009
_CP_OFF                           00003FFF
_CP_ON                            00003F7F
_DEVID1                           00008006
_FCMEN_OFF                        00001FFF
_FCMEN_ON                         00003FFF
_FOSC_ECH                         00003FFF
_FOSC_ECL                         00003FFD
_FOSC_ECM                         00003FFE
_FOSC_HS                          00003FFA
_FOSC_INTOSC                      00003FFC
_IDLOC0                           00008000
_IDLOC1                           00008001
_IDLOC2                           00008002
_IDLOC3                           00008003
_IESO_OFF                         00002FFF
_IESO_ON                          00003FFF
_LPBOR_OFF                        00003FFF
_LPBOR_ON                         000037FF
_LVP_OFF                          00001FFF
_LVP_ON                           00003FFF
_MAIN_PROG_0048                   00000048
_MAIN_PROG_005B                   0000005B
MPASM 5.77                        WS2813.ASM   8-13-2018  12:11:19         PAGE 88


SYMBOL TABLE
  LABEL                             VALUE 

_MAIN_PROG_006B                   0000006B
_MAIN_PROG_0073                   00000073
_MAIN_PROG_008B                   0000008B
_MAIN_PROG_009D                   0000009D
_MAIN_PROG_00B0                   000000B0
_MAIN_PROG_00C2                   000000C2
_MAIN_PROG_00D5                   000000D5
_MAIN_PROG_00DD                   000000DD
_MAIN_PROG_00FA                   000000FA
_MAIN_PROG_010D                   0000010D
_MAIN_PROG_011F                   0000011F
_MAIN_PROG_0132                   00000132
_MAIN_PROG_0142                   00000142
_MAIN_PROG_014A                   0000014A
_MAIN_PROG_016F                   0000016F
_MAIN_PROG_0173                   00000173
_MAIN_PROG_017D                   0000017D
_MAIN_PROG_0188                   00000188
_MAIN_PROG_0192                   00000192
_MAIN_PROG_019D                   0000019D
_MAIN_PROG_01A7                   000001A7
_MAIN_PROG_01B2                   000001B2
_MAIN_PROG_01BC                   000001BC
_MAIN_PROG_01C7                   000001C7
_MAIN_PROG_01D1                   000001D1
_MAIN_PROG_01DC                   000001DC
_MAIN_PROG_01E6                   000001E6
_MAIN_PROG_01F1                   000001F1
_MAIN_PROG_01FB                   000001FB
_MAIN_PROG_0206                   00000206
_MAIN_PROG_0210                   00000210
_MAIN_PROG_021B                   0000021B
_MAIN_PROG_0225                   00000225
_MAIN_PROG_0230                   00000230
_MAIN_PROG_023A                   0000023A
_MAIN_PROG_0245                   00000245
_MAIN_PROG_024F                   0000024F
_MAIN_PROG_025A                   0000025A
_MAIN_PROG_0264                   00000264
_MAIN_PROG_026F                   0000026F
_MAIN_PROG_0279                   00000279
_MAIN_PROG_0284                   00000284
_MAIN_PROG_028E                   0000028E
_MAIN_PROG_0299                   00000299
_MAIN_PROG_02A3                   000002A3
_MAIN_PROG_02AE                   000002AE
_MAIN_PROG_02B8                   000002B8
_MAIN_PROG_02C3                   000002C3
_MAIN_PROG_02CD                   000002CD
_MAIN_PROG_02D8                   000002D8
_MAIN_PROG_02E2                   000002E2
_MAIN_PROG_02ED                   000002ED
_MAIN_PROG_02F7                   000002F7
MPASM 5.77                        WS2813.ASM   8-13-2018  12:11:19         PAGE 89


SYMBOL TABLE
  LABEL                             VALUE 

_MAIN_PROG_0302                   00000302
_MAIN_PROG_030C                   0000030C
_MAIN_PROG_0317                   00000317
_MAIN_PROG_0321                   00000321
_MAIN_PROG_032C                   0000032C
_MAIN_PROG_0336                   00000336
_MAIN_PROG_0341                   00000341
_MAIN_PROG_034B                   0000034B
_MAIN_PROG_0356                   00000356
_MAIN_PROG_0360                   00000360
_MCLRE_OFF                        00003FBF
_MCLRE_ON                         00003FFF
_PLLEN_OFF                        00003EFF
_PLLEN_ON                         00003FFF
_PPS1WAY_OFF                      00003FFB
_PPS1WAY_ON                       00003FFF
_PWRTE_OFF                        00003FFF
_PWRTE_ON                         00003FDF
_STVREN_OFF                       00003DFF
_STVREN_ON                        00003FFF
_WDTCCS_LFINTOSC                  000007FF
_WDTCCS_MFINTOSC                  00000FFF
_WDTCCS_SWC                       00003FFF
_WDTCPS_WDTCPS0                   00003FE0
_WDTCPS_WDTCPS1                   00003FE1
_WDTCPS_WDTCPS10                  00003FF0
_WDTCPS_WDTCPS11                  00003FF1
_WDTCPS_WDTCPS12                  00003FF2
_WDTCPS_WDTCPS1F                  00003FFF
_WDTCPS_WDTCPS2                   00003FE2
_WDTCPS_WDTCPS3                   00003FE3
_WDTCPS_WDTCPS4                   00003FE4
_WDTCPS_WDTCPS5                   00003FE5
_WDTCPS_WDTCPS6                   00003FE6
_WDTCPS_WDTCPS7                   00003FE7
_WDTCPS_WDTCPS8                   00003FE8
_WDTCPS_WDTCPS9                   00003FE9
_WDTCPS_WDTCPSA                   00003FEA
_WDTCPS_WDTCPSB                   00003FEB
_WDTCPS_WDTCPSC                   00003FEC
_WDTCPS_WDTCPSD                   00003FED
_WDTCPS_WDTCPSE                   00003FEE
_WDTCPS_WDTCPSF                   00003FEF
_WDTCWS_WDTCWS100                 00003EFF
_WDTCWS_WDTCWS125                 000038FF
_WDTCWS_WDTCWS25                  000039FF
_WDTCWS_WDTCWS375                 00003AFF
_WDTCWS_WDTCWS50                  00003BFF
_WDTCWS_WDTCWS625                 00003CFF
_WDTCWS_WDTCWS75                  00003DFF
_WDTCWS_WDTCWSSW                  00003FFF
_WDTE_NSLEEP                      00003FDF
_WDTE_OFF                         00003F9F
MPASM 5.77                        WS2813.ASM   8-13-2018  12:11:19         PAGE 90


SYMBOL TABLE
  LABEL                             VALUE 

_WDTE_ON                          00003FFF
_WDTE_SWDTEN                      00003FBF
_WRT_ALL                          00003FFC
_WRT_BOOT                         00003FFE
_WRT_HALF                         00003FFD
_WRT_OFF                          00003FFF
_ZCD_OFF                          00003FFF
_ZCD_ON                           00003F7F
__16F1615                         00000001
__DEBUG                           
__MPLAB_DEBUGGER_SIMULATOR        1
d0                                00000000

Errors   :     0
Warnings :     0 reported,     0 suppressed
Messages :   146 reported,     0 suppressed

