MPASM 5.77               COLORIZE_ANALOG.ASM   7-21-2018  21:33:50         PAGE  1


LOC  OBJECT CODE     LINE SOURCE TEXT
  VALUE

                      00001  list   R=DEC
                      00002 ;*******************************************************************************
                      00003 ;
                      00004 ; Program: WS2813
                      00005 ; Author: Paul Wood
                      00006 ; Date Created: 06/30/2018 5:40PM
                      00007 ; Purpose: To display patterns on WS2813 based RGB LED strip
                      00008 ;
                      00009 ;*******************************************************************************
                      00010 ;
                      00011 ; Program Hierarchy:
                      00012 ;
                      00013 ;
                      00014 ;*******************************************************************************
                      00015 ;                                 EXTERNALS
                      00016 ;*******************************************************************************
                      00017 #include p16f1615.inc
                      00001         LIST
                      00002 
                      00003 ;==========================================================================
                      00004 ; Build date : Nov 22 2017
                      00005 ;  MPASM PIC16F1615 processor include
                      00006 ; 
                      00007 ;  (c) Copyright 1999-2017 Microchip Technology, All rights reserved
                      00008 ;==========================================================================
                      00009 
                      05119         LIST
                      00018 #include WS2813.inc
                      00001 ; CONFIG
                      00002 #DEFINE WS2813_PIN      RC4         ; Must use pin with high drive capabilities
                      00003 #DEFINE WS2813_LAT      LATC4       ; 
                      00004 #DEFINE WS2813_HIDR     HIDC4       ; 
                      00005 #DEFINE NUM_LEDS        60          ; number of LEDs in strip
                      00006 
                      00007 
                      00008 ; REGISTER BIT FIELDS
                      00009     ; RENDER_STATUS
                      00010     #define     FBCC    7
                      00011     #define     FPSTM   6
                      00012     #define     FRC     5
                      00013     
                      00014     
                      00015     
                      00016         
                      00019 #include UtilMacros.inc
                      00001 #include UtilRoutines.inc
                      00001 
                      00002     
                      00003 ;************************************************************************************
                      00004 ;                             "Div" ROUTINE NECESSITIES    
                      00005 ;************************************************************************************
  0000                00006     EXTERN  RSHIFT16
  0000                00007     EXTERN  LSHIFT16
MPASM 5.77               COLORIZE_ANALOG.ASM   7-21-2018  21:33:50         PAGE  2


LOC  OBJECT CODE     LINE SOURCE TEXT
  VALUE

  0000                00008     EXTERN  SHIFTNUM
                      00009     
                      00010 
                      00011     
                      00012 
                      00002 #include p16f1615.inc
                      05120         LIST
                      05121 
                      05122 ;==========================================================================
                      05123 ; Build date : Nov 22 2017
                      05124 ;  MPASM PIC16F1615 processor include
                      05125 ; 
                      05126 ;  (c) Copyright 1999-2017 Microchip Technology, All rights reserved
                      05127 ;==========================================================================
                      05128 
Message[310]: Superseding current maximum RAM and RAM map.
                      10238         LIST
                      00003         
                      00004         
                      00005 MOVLF   MACRO   DEST, LIT
                      00006         BANKSEL DEST
                      00007         MOVLW   LIT
                      00008         MOVWF   DEST
                      00009         ENDM
                      00010         
                      00011 CLRSTAT MACRO    
                      00012         BCF     STATUS, Z
                      00013         BCF     STATUS, C
                      00014         BCF     STATUS, DC
                      00015         ENDM
                      00016         
                      00017 CPYFF   MACRO   FROM,TO
                      00018         BANKSEL FROM
                      00019         MOVF    FROM, W
                      00020         BANKSEL TO
                      00021         MOVWF   TO
                      00022         ENDM
                      00023 
                      00024 RSF16   MACRO   NUM, NUMBITS
                      00025         MOV16   NUM, SHIFTNUM
                      00026         BANKSEL NUMBITS
                      00027         MOVFW   NUMBITS
                      00028         PAGESEL RSHIFT16
                      00029         CALL    RSHIFT16
                      00030         MOV16   SHIFTNUM, NUM
                      00031         ENDM
                      00032         
                      00033 LSF16   MACRO   NUM, NUMBITS
                      00034         MOV16   NUM, SHIFTNUM
                      00035         BANKSEL NUMBITS
                      00036         MOVFW   NUMBITS
                      00037         PAGESEL LSHIFT16
                      00038         CALL    LSHIFT16
MPASM 5.77               COLORIZE_ANALOG.ASM   7-21-2018  21:33:50         PAGE  3


LOC  OBJECT CODE     LINE SOURCE TEXT
  VALUE

                      00039         MOV16   SHIFTNUM, NUM
                      00040         ENDM
                      00041         
                      00042 ;
                      00043 ; http://www.mcmanis.com/chuck/robotics/projects/pic-16bit.htm
                      00044 ;
                      00045 ; These are the psuedo "registers" used by the 16 BIT operations
                      00046 ;        
  0000007E            00047 _REG_A       EQU     H'007E'
  0000007C            00048 _REG_B       EQU     H'007C'
                      00049 
                      00050 ;
                      00051 ; 16 bit move from SRC to DST
                      00052 ;
                      00053 MOV16   MACRO   SRC, DST
                      00054         BANKSEL SRC
                      00055         MOVF    SRC,W
                      00056         BANKSEL DST
                      00057         MOVWF   DST
                      00058         BANKSEL SRC
                      00059         MOVF    SRC+1,W
                      00060         BANKSEL DST
                      00061         MOVWF   DST+1
                      00062         ENDM
                      00063 ;
                      00064 ; 16 bit unsigned compare, returns Z and C set appropriately
                      00065 ; Compares the registers "CMP_A" and "CMP_B"
                      00066 ; Flag states and what they mean:
                      00067 ;
                      00068 ;       Z true - X & Y are equal
                      00069 ;       C true - X > Y
                      00070 ;       C false - X < Y
                      00071 ;        
                      00072 CMP16   MACRO   X, Y
                      00073         MOV16   X, _REG_A
                      00074         SUB16   _REG_A,Y
                      00075         MOVF    _REG_A,W
                      00076         IORWF   _REG_A+1,W
                      00077         ENDM
                      00078 
                      00079 ;
                      00080 ; Initialize a 16 bit value
                      00081 ;
                      00082 INIT16  MACRO   VAR, CONST
                      00083         MOVLW   low (CONST)
                      00084         MOVWF   (VAR)
                      00085         MOVLW   high (CONST)
                      00086         MOVWF   (VAR)+1
                      00087         ENDM        
                      00088 
                      00089 ;
                      00090 ; Initialize a 16 bit value to zero
                      00091 ;
MPASM 5.77               COLORIZE_ANALOG.ASM   7-21-2018  21:33:50         PAGE  4


LOC  OBJECT CODE     LINE SOURCE TEXT
  VALUE

                      00092 CLR16   MACRO   VAR
                      00093         CLRF    VAR
                      00094         CLRF    VAR+1
                      00095         ENDM
                      00096         
                      00097 ;
                      00098 ; Macro to do a logical shift right on a 16 bit value
                      00099 ; (0 is shifted into the MSB)
                      00100 ;
                      00101 LSR16   MACRO   VAR16
                      00102         BCF     STATUS, C       ; Clear carry
                      00103         RRF     (VAR16)+1,F     ; Rotate high byte right
                      00104         RRF     (VAR16),F       ; Rotate low byte right
                      00105         ENDM
                      00106         
                      00107 LSL16   MACRO   VAR16
                      00108         BCF     STATUS, C       ; Clear carry
                      00109         RLF     (VAR16),F       ; Rotate low byte left
                      00110         RLF     (VAR16)+1,F     ; Rotate upper byte left
                      00111         ENDM        
                      00112                 
                      00113 ;
                      00114 ; 16 bit unsigned subtraction with carry out.
                      00115 ; Word format is little endian (LSB at lower address)
                      00116 ; Operation is DST = DST - SRC
                      00117 ;
                      00118 ; (This from the "tips and tricks" seminar handout)
                      00119 ;
                      00120 ; DST is replaced, SRC is preserved, Carry is set correctly
                      00121 ;
                      00122 ;
                      00123 SUB16   MACRO   DST, SRC
                      00124         MOVF    SRC,W         ; Get low byte of subtrahend
                      00125         SUBWF   DST,F         ; Subtract DST(low) - SRC(low)
                      00126         MOVF    SRC+1,W       ; Now get high byte of subtrahend
                      00127         BTFSS   STATUS,C        ; If there was a borrow, rather than
                      00128         INCF    SRC+1,W       ; decrement high byte of dst we inc src
                      00129         SUBWF   DST+1,F       ; Subtract the high byte and we're done
                      00130         ENDM
                      00131         
                      00132 SUBI16  MACRO   DST, CONST
                      00133         MOVLW   LOW (CONST)
                      00134         SUBWF   (DST), F
                      00135         MOVLW   HIGH (CONST)
                      00136         BTFSS   STATUS, C
                      00137         MOVLW   (HIGH (CONST))+1
                      00138         SUBWF   (DST)+1,F
                      00139         ENDM
                      00140                 
                      00141 
                      00142 ;
                      00143 ; 16 bit unsigned addition with carry out.
                      00144 ; Operation: DST = DST + SRC                       
MPASM 5.77               COLORIZE_ANALOG.ASM   7-21-2018  21:33:50         PAGE  5


LOC  OBJECT CODE     LINE SOURCE TEXT
  VALUE

                      00145 ;
                      00146 ; DST is replaced, SRC is preserved, Carry is set correctly
                      00147 ;
                      00148 ADD16   MACRO   DST,SRC 
                      00149         MOVF    (SRC),W         ; Get low byte
                      00150         ADDWF   (DST),F         ; Add to destination
                      00151         MOVF    (SRC)+1,W       ; Get high byte
                      00152         BTFSC   STATUS,C        ; Check for carry
                      00153         INCF    (SRC)+1,W       ; Add one for carry
                      00154         ADDWF   (DST)+1,F       ; Add high byte into DST
                      00155         ENDM
                      00156 
                      00157 ;
                      00158 ; 16 bit Add Immediate
                      00159 ; Operation: DST = DST + Constant
                      00160 ;
                      00161 ; DST is updated, carry is set correctly.
                      00162 ;
                      00163 ADDI16  MACRO   DST,AD
                      00164         MOVLW   LOW (AD)
                      00165         ADDWF   DST,F
                      00166         MOVLW   HIGH (AD)
                      00167         BTFSC   STATUS,C
                      00168         MOVLW   (HIGH (AD)) + 1
                      00169         ADDWF   (DST)+1,F
                      00170         ENDM
                      00171 ;
                      00172 ; Negate 16 bit value
                      00173 ; Find two's complement value of a 16 bit number
                      00174 ;
                      00175 NEG16   MACRO   DST
                      00176         COMF    (DST)
                      00177         COMF    (DST)+1
                      00178         INC16   DST
                      00179         ENDM
                      00180                 
                      00181 ;
                      00182 ; Increment 16 bit value, sets Z on exit.
                      00183 ;
                      00184 ; Operation: DST++
                      00185 ;
                      00186 INC16   MACRO   DST        
                      00187         INCFSZ  (DST),W         ; Add one to low byte
                      00188         DECF    (DST)+1,F       ; No carry (negates next step)
                      00189         INCF    (DST)+1,F       ; Add one to high byte
                      00190         MOVWF   (DST)           ; Store updated low byte back.
                      00191         IORWF   (DST)+1,W       ; Set Z flag
                      00192         ENDM
                      00193 
                      00194 ;
                      00195 ; Decrement 16 bit value, sets Z on exit
                      00196 ;        
                      00197 ; Operation: DST--
MPASM 5.77               COLORIZE_ANALOG.ASM   7-21-2018  21:33:50         PAGE  6


LOC  OBJECT CODE     LINE SOURCE TEXT
  VALUE

                      00198 ;
                      00199 DEC16   MACRO   DST
                      00200         DECF    (DST),F         ; Decrement low byte
                      00201         INCFSZ  (DST),W         ; Check for underflow
                      00202         INCF    (DST)+1,F       ; Update
                      00203         DECF    (DST)+1,F       ; Fixup
                      00204         MOVF    (DST),W
                      00205         IORWF   (DST)+1,W       ; Set Z bit
                      00206         ENDM
                      00207 
                      00020 #include UtilRoutines.inc
                      00013 
                      00014     
                      00015 ;************************************************************************************
                      00016 ;                             "Div" ROUTINE NECESSITIES    
                      00017 ;************************************************************************************
  0000                00018     EXTERN  RSHIFT16
  0000                00019     EXTERN  LSHIFT16
  0000                00020     EXTERN  SHIFTNUM
                      00021     
                      00022 
                      00023     
                      00024 
                      00021     
  0000                00022     GLOBAL  DO_RENDER
  0000                00023     GLOBAL  EXTERN_INTERRUPT_SERV
  0000                00024     GLOBAL  EXTERN_INITIAL
                      00025     
  0000                00026     EXTERN  WRGB
                      00027   
                      00028 ;*******************************************************************************
                      00029 ;                             MACRO DEFINITIONS
                      00030 ;*******************************************************************************
                      00031 ACQ_DELAY   MACRO
                      00032    MOVLW    0x0E
                      00033 ACQ:
                      00034     DECFSZ  WREG, W
                      00035     GOTO    ACQ
                      00036    ENDM
                      00037  
                      00038 WITHIN_WINDOW   MACRO   D           ; sets C flag of STATUS register
                      00039         CLRSTAT                     ; clear Z and C flags
                      00040         CMP16   TGRL, D             ; test if above lower trigger - C will be clear
                      00041         BTFSC   STATUS, C           ; exits macro if C set = not above TGRL
                      00042         GOTO    $+6
                      00043         CMP16   TGRH, D             ; will set c if below TGRH
                      00044         ENDM
                      00045    
                      00046 ;*******************************************************************************
                      00047 ;                           VARIABLE DEFINITIONS
                      00048 ;*******************************************************************************
                      00049     #DEFINE ADC_CH      AN3         ; RA4
                      00050     #DEFINE ADC_TRIS    TRISA4
MPASM 5.77               COLORIZE_ANALOG.ASM   7-21-2018  21:33:50         PAGE  7


LOC  OBJECT CODE     LINE SOURCE TEXT
  VALUE

                      00051     #DEFINE ADC_ANSEL   ANSA4
                      00052     #DEFINE TRIGGER_OFF 0x3F        ; 10bit resolution  [0V, 5V] corresponds to [0x000, 0x3FF]
                      00053                                     ; TRIGGER_OFF = 0.5V -> 5V / 10 -> 0x3FF / 10
                      00054     
                      00055     UDATA   0x20
                      00056 ;TEMP REGISTERS
0020                  00057 TEMP8   RES 1
0021                  00058 TEMP16  RES 2
                      00059     
                      00060     
                      00061 ;ADC REGISTER
0023                  00062 WDATA   RES 2               ; copied data from ADC read
                      00063     
                      00064 ;AMPLITUDE REGISTERS
0025                  00065 AMPL_WAV    RES 2           ; calculated amplitude 
0027                  00066 MIN_WAV RES 2               ; wave trough
0029                  00067 MAX_WAV RES 2               ; wave peak
                      00068         
                      00069 ;FREQUENCY REGISTERS
002B                  00070 DELTA_T RES 2                               ; change in timer3 ticks from 2 tiggered plots
002D                  00071 TGRH    RES 2;EQU 0x1FF + TRIGGER_OFF       ; signal coming in biased to 2.5V w/ range [0V, 5V] 
002F                  00072 TGRL    RES 2;EQU 0x1FF - TRIGGER_OFF       ; 2.5V corresponds to 0x3FF / 2 = 0x1FF
                      00073         
                      00074     ; red colorization parameters
0031                  00075 RS1 RES 1                   ; red slope - can be constant or function of frequency (ADC result)
0032                  00076 RS2 RES 1
0033                  00077 R1  RES 2                   ; red point 1
0035                  00078 R2  RES 2                   ; red point 2
0037                  00079 R3  RES 2                   ; red point 3
                      00080   
                      00081     ; green colorization parameters
0039                  00082 GS1 RES 1                   ; green slope - can be constant or function of frequency (ADC result)
003A                  00083 GS2 RES 1
003B                  00084 G1  RES 2                   ; green point 1
003D                  00085 G2  RES 2                   ; green point 2
003F                  00086 G3  RES 2                   ; green point 3
0041                  00087 G4  RES 2                   ; green point 4
                      00088   
                      00089     ; blue colorization parameters
0043                  00090 BS1 RES 1                   ; blue slope - can be constant or function of frequency (ADC result)
0044                  00091 B1  RES 2                   ; blue point 1
0046                  00092 B2  RES 2                   ; blue point 2
                      00093   
                      00094 COLORIZOR   CODE
                      00095 ;*******************************************************************************
                      00096 ;                               EXTERN_INITIAL
                      00097 ;*******************************************************************************   
0000                  00098 EXTERN_INITIAL:
                      00099 ;PORT CONFIG
0000   0022           00100     BANKSEL LATA
Message[302]: Register in operand not in bank 0.  Ensure that bank bits are correct.
0001   018C           00101     CLRF    LATA
0002   0020           00102     BANKSEL PORTA
MPASM 5.77               COLORIZE_ANALOG.ASM   7-21-2018  21:33:50         PAGE  8


LOC  OBJECT CODE     LINE SOURCE TEXT
  VALUE

0003   160C           00103     BSF     PORTA, ADC_TRIS
0004   0023           00104     BANKSEL ANSELA
Message[302]: Register in operand not in bank 0.  Ensure that bank bits are correct.
0005   160C           00105     BSF     ANSELA, ADC_ANSEL
                      00106 
                      00107 ;ADC CONFIG
0006   0021           00108     BANKSEL ADCON1
                      00109     MOVLF   ADCON1, b'10000000'         ; right justified, Fosc/2, VDD ref
0007   0021               M         BANKSEL ADCON1
0008   3080               M         MOVLW   b'10000000'
Message[302]: Register in operand not in bank 0.  Ensure that bank bits are correct.
0009   009E               M         MOVWF   ADCON1
                      00110     MOVLF   ADCON0, b'00001100'         ; set output channel to AN3
000A   0021               M         BANKSEL ADCON0
000B   300C               M         MOVLW   b'00001100'
Message[302]: Register in operand not in bank 0.  Ensure that bank bits are correct.
000C   009D               M         MOVWF   ADCON0
                      00111     
                      00112 ;ADC INTERRUPT CONFIG
000D   0021           00113     BANKSEL PIE1
Message[302]: Register in operand not in bank 0.  Ensure that bank bits are correct.
000E   1710           00114     BSF     PIE1, ADIE                  ; enable ADC interrupt
                      00115     
                      00116 ;REGISTER CONFIG
000F   002?           00117     BANKSEL MIN_WAV
                      00118     INIT16  MIN_WAV, 0x1FF
0010   30FF               M         MOVLW   low (0x1FF)
0011   00??               M         MOVWF   (MIN_WAV)
0012   3001               M         MOVLW   high (0x1FF)
0013   00??               M         MOVWF   (MIN_WAV)+1
0014   002?           00119     BANKSEL MAX_WAV
                      00120     INIT16  MAX_WAV, 0x1FF
0015   30FF               M         MOVLW   low (0x1FF)
0016   00??               M         MOVWF   (MAX_WAV)
0017   3001               M         MOVLW   high (0x1FF)
0018   00??               M         MOVWF   (MAX_WAV)+1
                      00121     CLR16   DELTA_T
0019   01??               M         CLRF    DELTA_T
001A   01??               M         CLRF    DELTA_T+1
                      00122     INIT16  TGRH, 0x1FF
001B   30FF               M         MOVLW   low (0x1FF)
001C   00??               M         MOVWF   (TGRH)
001D   3001               M         MOVLW   high (0x1FF)
001E   00??               M         MOVWF   (TGRH)+1
                      00123     ADDI16  TGRH, TRIGGER_OFF
001F   303F               M         MOVLW   LOW (0x3F)
0020   07??               M         ADDWF   TGRH,F
0021   3000               M         MOVLW   HIGH (0x3F)
0022   1803               M         BTFSC   STATUS,C
0023   3001               M         MOVLW   (HIGH (0x3F)) + 1
0024   07??               M         ADDWF   (TGRH)+1,F
                      00124     INIT16  TGRL, 0x1FF
0025   30FF               M         MOVLW   low (0x1FF)
MPASM 5.77               COLORIZE_ANALOG.ASM   7-21-2018  21:33:50         PAGE  9


LOC  OBJECT CODE     LINE SOURCE TEXT
  VALUE

0026   00??               M         MOVWF   (TGRL)
0027   3001               M         MOVLW   high (0x1FF)
0028   00??               M         MOVWF   (TGRL)+1
                      00125     SUBI16  TGRL, TRIGGER_OFF
0029   303F               M         MOVLW   LOW (0x3F)
002A   02??               M         SUBWF   (TGRL), F
002B   3000               M         MOVLW   HIGH (0x3F)
002C   1C03               M         BTFSS   STATUS, C
002D   3001               M         MOVLW   (HIGH (0x3F))+1
002E   02??               M         SUBWF   (TGRL)+1,F
                      00126     
                      00127     
                      00128 ;START ADC CONVERSION
002F   0021           00129     BANKSEL ADCON0
Message[302]: Register in operand not in bank 0.  Ensure that bank bits are correct.
0030   141D           00130     BSF     ADCON0, 0                   ; enable ADC
                      00131     ACQ_DELAY                           ; acquisition delay
0031   300E               M    MOVLW    0x0E
0032                      M ACQ:
0032   0B09               M     DECFSZ  WREG, W
0033   2???               M     GOTO    ACQ
Message[302]: Register in operand not in bank 0.  Ensure that bank bits are correct.
0034   149D           00132     BSF     ADCON0, ADGO                ; start conversion
                      00133     
                      00134   
                      00135 ;TODO: set colorize parameters
0035   002?           00136     BANKSEL WDATA
                      00137     INIT16  WDATA, D'55639'
0036   3057               M         MOVLW   low (D'55639')
0037   00??               M         MOVWF   (WDATA)
0038   30D9               M         MOVLW   high (D'55639')
0039   00??               M         MOVWF   (WDATA)+1
003A   002?           00138     BANKSEL RS1
                      00139     MOVLF   RS1, 4
003B   002?               M         BANKSEL RS1
003C   3004               M         MOVLW   4
003D   00??               M         MOVWF   RS1
                      00140     MOVLF   RS2, 5
003E   002?               M         BANKSEL RS2
003F   3005               M         MOVLW   5
0040   00??               M         MOVWF   RS2
                      00141     INIT16  R1, D'12288'
0041   3000               M         MOVLW   low (D'12288')
0042   00??               M         MOVWF   (R1)
0043   3030               M         MOVLW   high (D'12288')
0044   00??               M         MOVWF   (R1)+1
                      00142     INIT16  R2, D'16384'
0045   3000               M         MOVLW   low (D'16384')
0046   00??               M         MOVWF   (R2)
0047   3040               M         MOVLW   high (D'16384')
0048   00??               M         MOVWF   (R2)+1
                      00143     INIT16  R3, D'49152'
0049   3000               M         MOVLW   low (D'49152')
MPASM 5.77               COLORIZE_ANALOG.ASM   7-21-2018  21:33:50         PAGE 10


LOC  OBJECT CODE     LINE SOURCE TEXT
  VALUE

004A   00??               M         MOVWF   (R3)
004B   30C0               M         MOVLW   high (D'49152')
004C   00??               M         MOVWF   (R3)+1
004D   2???           00144     CALL    SET_WRGB
                      00145     
004E   0008           00146     RETURN
                      00147     
                      00148  
                      00149 ;*******************************************************************************
                      00150 ;                           EXTERN_INTERRUPT_SERV
                      00151 ;*******************************************************************************
004F                  00152 EXTERN_INTERRUPT_SERV:
                      00153 ;    BANKSEL ADRESH
                      00154 ;    CPYFF   ADRESH, WDATA              ; copy high adc result to high wdata
                      00155 ;    BANKSEL ADRESL
                      00156 ;    CPYFF   ADRESL, WDATA+1            ; copy low adc result to high wdata
                      00157     
                      00158     ; !!!! WITHIN_TRIGGER unit tests !!!!
                      00159 ;    BANKSEL T3CON
                      00160 ;    BSF            T3CON, TMR3ON
004F   002?           00161     BANKSEL WDATA
                      00162 ;    INIT16  WDATA, 0x202
                      00163 ;    INIT16  WDATA, 0x1FC       ; 0x1FF +- 3        |   yes
                      00164 ;    INIT16  WDATA, 0x22E    
                      00165 ;    INIT16  WDATA, 0x1D0       ; 0x1FF +- 2F       |   yes
                      00166 ;    INIT16  WDATA, 0x2FE
                      00167 ;    INIT16  WDATA, 0x1B0       ; 0x1FF +- 4F       |   no
                      00168 ;    INIT16  WDATA, 0x3FF       ; 0x3FF             |   no
                      00169 ;    INIT16  WDATA, 0x000       ; 0x000             |   no
                      00170     INIT16  WDATA, 0x1FF        ; 0x1FF             |   yes
0050   30FF               M         MOVLW   low (0x1FF)
0051   00??               M         MOVWF   (WDATA)
0052   3001               M         MOVLW   high (0x1FF)
0053   00??               M         MOVWF   (WDATA)+1
                      00171    
                      00172 ;TEST FOR NEW WAVE TROUGH
0054   002?           00173     BANKSEL MIN_WAV
                      00174     CLRSTAT                             ; clear Z and C  flags
0055   1103               M         BCF     STATUS, Z
0056   1003               M         BCF     STATUS, C
0057   1083               M         BCF     STATUS, DC
                      00175     CMP16   WDATA, MIN_WAV
                          M         MOV16   WDATA, _REG_A
0058   002?               M         BANKSEL WDATA
0059   08??               M         MOVF    WDATA,W
005A   0020               M         BANKSEL _REG_A
005B   00FE               M         MOVWF   _REG_A
005C   002?               M         BANKSEL WDATA
005D   08??               M         MOVF    WDATA+1,W
005E   0020               M         BANKSEL _REG_A
005F   00FF               M         MOVWF   _REG_A+1
                          M         SUB16   _REG_A,MIN_WAV
0060   08??               M         MOVF    MIN_WAV,W     ; Get low byte of subtrahend
MPASM 5.77               COLORIZE_ANALOG.ASM   7-21-2018  21:33:50         PAGE 11


LOC  OBJECT CODE     LINE SOURCE TEXT
  VALUE

0061   02FE               M         SUBWF   _REG_A,F      ; Subtract DST(low) - SRC(low)
0062   08??               M         MOVF    MIN_WAV+1,W   ; Now get high byte of subtrahend
0063   1C03               M         BTFSS   STATUS,C        ; If there was a borrow, rather than
0064   0A??               M         INCF    MIN_WAV+1,W   ; decrement high byte of dst we inc src
0065   02FF               M         SUBWF   _REG_A+1,F    ; Subtract the high byte and we're done
0066   087E               M         MOVF    _REG_A,W
0067   047F               M         IORWF   _REG_A+1,W
0068   1C03           00176     BTFSS   STATUS, C                   ; test if WDATA < MIN_WAV, skip if isn't
0069   2???           00177     GOTO    SET_TROUGH
006A   2???           00178     GOTO    END_TEST1
006B                  00179 SET_TROUGH:
                      00180     MOV16   WDATA, MIN_WAV              ; set new MIN_WAV to new WDATA
006B   002?               M         BANKSEL WDATA
006C   08??               M         MOVF    WDATA,W
006D   002?               M         BANKSEL MIN_WAV
006E   00??               M         MOVWF   MIN_WAV
006F   002?               M         BANKSEL WDATA
0070   08??               M         MOVF    WDATA+1,W
0071   002?               M         BANKSEL MIN_WAV
0072   00??               M         MOVWF   MIN_WAV+1
0073                  00181 END_TEST1:
                      00182     
                      00183 ;TEST FOR NEW WAVE PEAK
0073   002?           00184     BANKSEL MAX_WAV
                      00185     CLRSTAT                             ; clear Z and C  flags
0074   1103               M         BCF     STATUS, Z
0075   1003               M         BCF     STATUS, C
0076   1083               M         BCF     STATUS, DC
                      00186     CMP16   MAX_WAV, WDATA
                          M         MOV16   MAX_WAV, _REG_A
0077   002?               M         BANKSEL MAX_WAV
0078   08??               M         MOVF    MAX_WAV,W
0079   0020               M         BANKSEL _REG_A
007A   00FE               M         MOVWF   _REG_A
007B   002?               M         BANKSEL MAX_WAV
007C   08??               M         MOVF    MAX_WAV+1,W
007D   0020               M         BANKSEL _REG_A
007E   00FF               M         MOVWF   _REG_A+1
                          M         SUB16   _REG_A,WDATA
007F   08??               M         MOVF    WDATA,W       ; Get low byte of subtrahend
0080   02FE               M         SUBWF   _REG_A,F      ; Subtract DST(low) - SRC(low)
0081   08??               M         MOVF    WDATA+1,W     ; Now get high byte of subtrahend
0082   1C03               M         BTFSS   STATUS,C        ; If there was a borrow, rather than
0083   0A??               M         INCF    WDATA+1,W     ; decrement high byte of dst we inc src
0084   02FF               M         SUBWF   _REG_A+1,F    ; Subtract the high byte and we're done
0085   087E               M         MOVF    _REG_A,W
0086   047F               M         IORWF   _REG_A+1,W
0087   1C03           00187     BTFSS   STATUS, C                   ; test if WDATA > MAX_WAV, skip if isn't
0088   2???           00188     GOTO    SET_PEAK
0089   2???           00189     GOTO    END_TEST2
008A                  00190 SET_PEAK:
                      00191     MOV16   WDATA, MAX_WAV              ; set new MAX_WAV to new WDATA
008A   002?               M         BANKSEL WDATA
MPASM 5.77               COLORIZE_ANALOG.ASM   7-21-2018  21:33:50         PAGE 12


LOC  OBJECT CODE     LINE SOURCE TEXT
  VALUE

008B   08??               M         MOVF    WDATA,W
008C   002?               M         BANKSEL MAX_WAV
008D   00??               M         MOVWF   MAX_WAV
008E   002?               M         BANKSEL WDATA
008F   08??               M         MOVF    WDATA+1,W
0090   002?               M         BANKSEL MAX_WAV
0091   00??               M         MOVWF   MAX_WAV+1
0092                  00192 END_TEST2:
                      00193      
                      00194 ;TEST IF WITHIN TRIGGER WINDOW
0092   0029           00195     BANKSEL T3CON
                      00196     CLRSTAT                             ; clear Z and C  flags
0093   1103               M         BCF     STATUS, Z
0094   1003               M         BCF     STATUS, C
0095   1083               M         BCF     STATUS, DC
Message[302]: Register in operand not in bank 0.  Ensure that bank bits are correct.
0096   1C15           00197     BTFSS   T3CON, TMR3ON               ; test whether there has already been a previous trigger
0097   2???           00198     GOTO    FIRST_TRGR
0098   2???           00199     GOTO    SECOND_TRGR
0099                  00200 FIRST_TRGR:                             ; if first trigger, start timer3 to measure cycles between trigg
                            ers
0099   002?           00201     BANKSEL WDATA
                      00202     CLRSTAT                             ; clear Z and C flags
009A   1103               M         BCF     STATUS, Z
009B   1003               M         BCF     STATUS, C
009C   1083               M         BCF     STATUS, DC
                      00203     CMP16   TGRL, WDATA                 ; test if above lower trigger - C will be clear
                          M         MOV16   TGRL, _REG_A
009D   002?               M         BANKSEL TGRL
009E   08??               M         MOVF    TGRL,W
009F   0020               M         BANKSEL _REG_A
00A0   00FE               M         MOVWF   _REG_A
00A1   002?               M         BANKSEL TGRL
00A2   08??               M         MOVF    TGRL+1,W
00A3   0020               M         BANKSEL _REG_A
00A4   00FF               M         MOVWF   _REG_A+1
                          M         SUB16   _REG_A,WDATA
00A5   08??               M         MOVF    WDATA,W       ; Get low byte of subtrahend
00A6   02FE               M         SUBWF   _REG_A,F      ; Subtract DST(low) - SRC(low)
00A7   08??               M         MOVF    WDATA+1,W     ; Now get high byte of subtrahend
00A8   1C03               M         BTFSS   STATUS,C        ; If there was a borrow, rather than
00A9   0A??               M         INCF    WDATA+1,W     ; decrement high byte of dst we inc src
00AA   02FF               M         SUBWF   _REG_A+1,F    ; Subtract the high byte and we're done
00AB   087E               M         MOVF    _REG_A,W
00AC   047F               M         IORWF   _REG_A+1,W
00AD   1803           00204     BTFSC   STATUS, C                   ; exits macro if C set = not above TGRL
00AE   2???           00205     GOTO    $+6
                      00206     CMP16   TGRH, WDATA                 ; will set c if below TGRH
                          M         MOV16   TGRH, _REG_A
00AF   002?               M         BANKSEL TGRH
00B0   08??               M         MOVF    TGRH,W
00B1   0020               M         BANKSEL _REG_A
00B2   00FE               M         MOVWF   _REG_A
MPASM 5.77               COLORIZE_ANALOG.ASM   7-21-2018  21:33:50         PAGE 13


LOC  OBJECT CODE     LINE SOURCE TEXT
  VALUE

00B3   002?               M         BANKSEL TGRH
00B4   08??               M         MOVF    TGRH+1,W
00B5   0020               M         BANKSEL _REG_A
00B6   00FF               M         MOVWF   _REG_A+1
                          M         SUB16   _REG_A,WDATA
00B7   08??               M         MOVF    WDATA,W       ; Get low byte of subtrahend
00B8   02FE               M         SUBWF   _REG_A,F      ; Subtract DST(low) - SRC(low)
00B9   08??               M         MOVF    WDATA+1,W     ; Now get high byte of subtrahend
00BA   1C03               M         BTFSS   STATUS,C        ; If there was a borrow, rather than
00BB   0A??               M         INCF    WDATA+1,W     ; decrement high byte of dst we inc src
00BC   02FF               M         SUBWF   _REG_A+1,F    ; Subtract the high byte and we're done
00BD   087E               M         MOVF    _REG_A,W
00BE   047F               M         IORWF   _REG_A+1,W
                      00207     ;WITHIN_WINDOW  WDATA               ; C will be set if within trigger window
00BF   0029           00208     BANKSEL T3CON
00C0   1803           00209     BTFSC   STATUS, C
Message[302]: Register in operand not in bank 0.  Ensure that bank bits are correct.
00C1   1415           00210     BSF     T3CON, TMR3ON               ; start timer3 if within trigger window
00C2   2???           00211     GOTO    END_TRGR_TEST               ; end trigger window test
00C3                  00212 SECOND_TRGR:
00C3   002?           00213     BANKSEL WDATA
                      00214     CLRSTAT                             ; clear Z and C flags
00C4   1103               M         BCF     STATUS, Z
00C5   1003               M         BCF     STATUS, C
00C6   1083               M         BCF     STATUS, DC
                      00215     CMP16   TGRL, WDATA                 ; test if above lower trigger - C will be clear
                          M         MOV16   TGRL, _REG_A
00C7   002?               M         BANKSEL TGRL
00C8   08??               M         MOVF    TGRL,W
00C9   0020               M         BANKSEL _REG_A
00CA   00FE               M         MOVWF   _REG_A
00CB   002?               M         BANKSEL TGRL
00CC   08??               M         MOVF    TGRL+1,W
00CD   0020               M         BANKSEL _REG_A
00CE   00FF               M         MOVWF   _REG_A+1
                          M         SUB16   _REG_A,WDATA
00CF   08??               M         MOVF    WDATA,W       ; Get low byte of subtrahend
00D0   02FE               M         SUBWF   _REG_A,F      ; Subtract DST(low) - SRC(low)
00D1   08??               M         MOVF    WDATA+1,W     ; Now get high byte of subtrahend
00D2   1C03               M         BTFSS   STATUS,C        ; If there was a borrow, rather than
00D3   0A??               M         INCF    WDATA+1,W     ; decrement high byte of dst we inc src
00D4   02FF               M         SUBWF   _REG_A+1,F    ; Subtract the high byte and we're done
00D5   087E               M         MOVF    _REG_A,W
00D6   047F               M         IORWF   _REG_A+1,W
00D7   1803           00216     BTFSC   STATUS, C                   ; exits macro if C set = not above TGRL
00D8   2???           00217     GOTO    $+6
                      00218     CMP16   TGRH, WDATA                 ; will set c if below TGRH
                          M         MOV16   TGRH, _REG_A
00D9   002?               M         BANKSEL TGRH
00DA   08??               M         MOVF    TGRH,W
00DB   0020               M         BANKSEL _REG_A
00DC   00FE               M         MOVWF   _REG_A
00DD   002?               M         BANKSEL TGRH
MPASM 5.77               COLORIZE_ANALOG.ASM   7-21-2018  21:33:50         PAGE 14


LOC  OBJECT CODE     LINE SOURCE TEXT
  VALUE

00DE   08??               M         MOVF    TGRH+1,W
00DF   0020               M         BANKSEL _REG_A
00E0   00FF               M         MOVWF   _REG_A+1
                          M         SUB16   _REG_A,WDATA
00E1   08??               M         MOVF    WDATA,W       ; Get low byte of subtrahend
00E2   02FE               M         SUBWF   _REG_A,F      ; Subtract DST(low) - SRC(low)
00E3   08??               M         MOVF    WDATA+1,W     ; Now get high byte of subtrahend
00E4   1C03               M         BTFSS   STATUS,C        ; If there was a borrow, rather than
00E5   0A??               M         INCF    WDATA+1,W     ; decrement high byte of dst we inc src
00E6   02FF               M         SUBWF   _REG_A+1,F    ; Subtract the high byte and we're done
00E7   087E               M         MOVF    _REG_A,W
00E8   047F               M         IORWF   _REG_A+1,W
                      00219     ;WITHIN_WINDOW  WDATA               ; C will be set if within trigger window
00E9   0029           00220     BANKSEL T3CON
00EA   1C03           00221     BTFSS   STATUS, C                   ; end test if not within window
00EB   2???           00222     GOTO    END_TRGR_TEST               ; end trigger window test
Message[302]: Register in operand not in bank 0.  Ensure that bank bits are correct.
00EC   1015           00223     BCF     T3CON, TMR3ON               ; turn off timer3
                      00224     CPYFF   TMR3H, DELTA_T              ; copy timer3 data to DELAT_T
00ED   0029               M         BANKSEL TMR3H
Message[302]: Register in operand not in bank 0.  Ensure that bank bits are correct.
00EE   0814               M         MOVF    TMR3H, W
00EF   002?               M         BANKSEL DELTA_T
00F0   00??               M         MOVWF   DELTA_T
                      00225     CPYFF   TMR3L, DELTA_T+1
00F1   0029               M         BANKSEL TMR3L
Message[302]: Register in operand not in bank 0.  Ensure that bank bits are correct.
00F2   0813               M         MOVF    TMR3L, W
00F3   002?               M         BANKSEL DELTA_T+1
00F4   00??               M         MOVWF   DELTA_T+1
Message[302]: Register in operand not in bank 0.  Ensure that bank bits are correct.
00F5   0193           00226     CLRF    TMR3L                       ; clear timer3
Message[302]: Register in operand not in bank 0.  Ensure that bank bits are correct.
00F6   0194           00227     CLRF    TMR3H   
00F7                  00228 END_TRGR_TEST:
                      00229     
                      00230 ;CLEANUP
00F7   0020           00231     BANKSEL PIR1
00F8   1310           00232     BCF     PIR1, ADIF                  ; clear ADC interrupt flag
                      00233     
00F9   0008           00234     RETURN
                      00235     
                      00236     
                      00237     
                      00238 
                      00239     
                      00240 ;*******************************************************************************
                      00241 ;                                DO_RENDER
                      00242 ;*******************************************************************************
00FA                  00243 DO_RENDER:
                      00244     
                      00245     
00FA   0008           00246     RETURN
MPASM 5.77               COLORIZE_ANALOG.ASM   7-21-2018  21:33:50         PAGE 15


LOC  OBJECT CODE     LINE SOURCE TEXT
  VALUE

                      00247     
                      00248 
                      00249     
                      00250     
00FB                  00251 SET_WRGB:
                      00252 
                      00253 ; GREEN PIECEWISE FUNCTION    
                      00254 ;   | 0x00              , f <= G1
                      00255 ;   | GS1(f-G1)         , G1 < f <= G2
                      00256 ;   | 0xFF              , G2 < f <= G3
                      00257 ;   | 0xFF - GS1(f-G3)  , G3 < f <= G4
                      00258 ;   | 0x00              , f > G4
                      00259 ;
00FB                  00260 SET_GREEN:
00FB   1003           00261     BCF     STATUS, C
00FC   002?           00262     BANKSEL WDATA
                      00263     CMP16   WDATA, G1                   ; check for first range in piecewise
                          M         MOV16   WDATA, _REG_A
00FD   002?               M         BANKSEL WDATA
00FE   08??               M         MOVF    WDATA,W
00FF   0020               M         BANKSEL _REG_A
0100   00FE               M         MOVWF   _REG_A
0101   002?               M         BANKSEL WDATA
0102   08??               M         MOVF    WDATA+1,W
0103   0020               M         BANKSEL _REG_A
0104   00FF               M         MOVWF   _REG_A+1
                          M         SUB16   _REG_A,G1
0105   08??               M         MOVF    G1,W          ; Get low byte of subtrahend
0106   02FE               M         SUBWF   _REG_A,F      ; Subtract DST(low) - SRC(low)
0107   08??               M         MOVF    G1+1,W        ; Now get high byte of subtrahend
0108   1C03               M         BTFSS   STATUS,C        ; If there was a borrow, rather than
0109   0A??               M         INCF    G1+1,W        ; decrement high byte of dst we inc src
010A   02FF               M         SUBWF   _REG_A+1,F    ; Subtract the high byte and we're done
010B   087E               M         MOVF    _REG_A,W
010C   047F               M         IORWF   _REG_A+1,W
010D   1C03           00264     BTFSS   STATUS, C                   
010E   2???           00265     GOTO    G_1                         ; within first range
010F   2???           00266     GOTO    G_12                        ; MIGHT be in the next range
0110                  00267 G_1:    ; first range in piecewise
0110   002?           00268     BANKSEL WRGB
                      00269     MOVLF   WRGB, 0x00
0111   002?               M         BANKSEL WRGB
0112   3000               M         MOVLW   0x00
0113   00??               M         MOVWF   WRGB
0114   2???           00270     GOTO    SET_RED
                      00271     
0115                  00272 G_12:   ; second range in piecewise
0115   1003           00273     BCF     STATUS, C
0116   002?           00274     BANKSEL WDATA
                      00275     CMP16   WDATA, G2
                          M         MOV16   WDATA, _REG_A
0117   002?               M         BANKSEL WDATA
0118   08??               M         MOVF    WDATA,W
MPASM 5.77               COLORIZE_ANALOG.ASM   7-21-2018  21:33:50         PAGE 16


LOC  OBJECT CODE     LINE SOURCE TEXT
  VALUE

0119   0020               M         BANKSEL _REG_A
011A   00FE               M         MOVWF   _REG_A
011B   002?               M         BANKSEL WDATA
011C   08??               M         MOVF    WDATA+1,W
011D   0020               M         BANKSEL _REG_A
011E   00FF               M         MOVWF   _REG_A+1
                          M         SUB16   _REG_A,G2
011F   08??               M         MOVF    G2,W          ; Get low byte of subtrahend
0120   02FE               M         SUBWF   _REG_A,F      ; Subtract DST(low) - SRC(low)
0121   08??               M         MOVF    G2+1,W        ; Now get high byte of subtrahend
0122   1C03               M         BTFSS   STATUS,C        ; If there was a borrow, rather than
0123   0A??               M         INCF    G2+1,W        ; decrement high byte of dst we inc src
0124   02FF               M         SUBWF   _REG_A+1,F    ; Subtract the high byte and we're done
0125   087E               M         MOVF    _REG_A,W
0126   047F               M         IORWF   _REG_A+1,W
0127   1803           00276     BTFSC   STATUS, C   
0128   2???           00277      GOTO    G_23                       ; might be in the next range 
                      00278     
                      00279     MOV16   WDATA, TEMP16               ; in this range
0129   002?               M         BANKSEL WDATA
012A   08??               M         MOVF    WDATA,W
012B   002?               M         BANKSEL TEMP16
012C   00??               M         MOVWF   TEMP16
012D   002?               M         BANKSEL WDATA
012E   08??               M         MOVF    WDATA+1,W
012F   002?               M         BANKSEL TEMP16
0130   00??               M         MOVWF   TEMP16+1
                      00280     SUB16   TEMP16, G3                  ; (f - G1)
0131   08??               M         MOVF    G3,W          ; Get low byte of subtrahend
0132   02??               M         SUBWF   TEMP16,F      ; Subtract DST(low) - SRC(low)
0133   08??               M         MOVF    G3+1,W        ; Now get high byte of subtrahend
0134   1C03               M         BTFSS   STATUS,C        ; If there was a borrow, rather than
0135   0A??               M         INCF    G3+1,W        ; decrement high byte of dst we inc src
0136   02??               M         SUBWF   TEMP16+1,F    ; Subtract the high byte and we're done
                      00281     RSF16   TEMP16, GS1                 ; (f - G1) / (1/m >> GS)
                          M         MOV16   TEMP16, SHIFTNUM
0137   002?               M         BANKSEL TEMP16
0138   08??               M         MOVF    TEMP16,W
0139   002?               M         BANKSEL SHIFTNUM
013A   00??               M         MOVWF   SHIFTNUM
013B   002?               M         BANKSEL TEMP16
013C   08??               M         MOVF    TEMP16+1,W
013D   002?               M         BANKSEL SHIFTNUM
013E   00??               M         MOVWF   SHIFTNUM+1
013F   002?               M         BANKSEL GS1
0140   08??               M         MOVFW   GS1
0141   3180               M         PAGESEL RSHIFT16
0142   2???               M         CALL    RSHIFT16
                          M         MOV16   SHIFTNUM, TEMP16
0143   002?               M         BANKSEL SHIFTNUM
0144   08??               M         MOVF    SHIFTNUM,W
0145   002?               M         BANKSEL TEMP16
0146   00??               M         MOVWF   TEMP16
MPASM 5.77               COLORIZE_ANALOG.ASM   7-21-2018  21:33:50         PAGE 17


LOC  OBJECT CODE     LINE SOURCE TEXT
  VALUE

0147   002?               M         BANKSEL SHIFTNUM
0148   08??               M         MOVF    SHIFTNUM+1,W
0149   002?               M         BANKSEL TEMP16
014A   00??               M         MOVWF   TEMP16+1
014B   002?           00282     BANKSEL WRGB
                      00283     CPYFF   TEMP16, WRGB                ; WRGB in GRB format
014C   002?               M         BANKSEL TEMP16
014D   08??               M         MOVF    TEMP16, W
014E   002?               M         BANKSEL WRGB
014F   00??               M         MOVWF   WRGB
0150   2???           00284     GOTO    SET_RED
                      00285     
0151                  00286 G_23:   ; third range in piecewise
0151   1003           00287     BCF     STATUS, C
0152   002?           00288     BANKSEL WDATA
                      00289     CMP16   WDATA, G3
                          M         MOV16   WDATA, _REG_A
0153   002?               M         BANKSEL WDATA
0154   08??               M         MOVF    WDATA,W
0155   0020               M         BANKSEL _REG_A
0156   00FE               M         MOVWF   _REG_A
0157   002?               M         BANKSEL WDATA
0158   08??               M         MOVF    WDATA+1,W
0159   0020               M         BANKSEL _REG_A
015A   00FF               M         MOVWF   _REG_A+1
                          M         SUB16   _REG_A,G3
015B   08??               M         MOVF    G3,W          ; Get low byte of subtrahend
015C   02FE               M         SUBWF   _REG_A,F      ; Subtract DST(low) - SRC(low)
015D   08??               M         MOVF    G3+1,W        ; Now get high byte of subtrahend
015E   1C03               M         BTFSS   STATUS,C        ; If there was a borrow, rather than
015F   0A??               M         INCF    G3+1,W        ; decrement high byte of dst we inc src
0160   02FF               M         SUBWF   _REG_A+1,F    ; Subtract the high byte and we're done
0161   087E               M         MOVF    _REG_A,W
0162   047F               M         IORWF   _REG_A+1,W
0163   1803           00290     BTFSC   STATUS, C                   ; might be in next range 
0164   2???           00291      GOTO    G_34
                      00292     
0165   002?           00293     BANKSEL WRGB                        ; in this range 
                      00294     MOVLF   WRGB, 0xFF
0166   002?               M         BANKSEL WRGB
0167   30FF               M         MOVLW   0xFF
0168   00??               M         MOVWF   WRGB
0169   2???           00295     GOTO    SET_RED
                      00296     
016A                  00297 G_34:   ; fourth range in piecewise
016A   1003           00298     BCF     STATUS, C
016B   002?           00299     BANKSEL WDATA
                      00300     CMP16   WDATA, G2
                          M         MOV16   WDATA, _REG_A
016C   002?               M         BANKSEL WDATA
016D   08??               M         MOVF    WDATA,W
016E   0020               M         BANKSEL _REG_A
016F   00FE               M         MOVWF   _REG_A
MPASM 5.77               COLORIZE_ANALOG.ASM   7-21-2018  21:33:50         PAGE 18


LOC  OBJECT CODE     LINE SOURCE TEXT
  VALUE

0170   002?               M         BANKSEL WDATA
0171   08??               M         MOVF    WDATA+1,W
0172   0020               M         BANKSEL _REG_A
0173   00FF               M         MOVWF   _REG_A+1
                          M         SUB16   _REG_A,G2
0174   08??               M         MOVF    G2,W          ; Get low byte of subtrahend
0175   02FE               M         SUBWF   _REG_A,F      ; Subtract DST(low) - SRC(low)
0176   08??               M         MOVF    G2+1,W        ; Now get high byte of subtrahend
0177   1C03               M         BTFSS   STATUS,C        ; If there was a borrow, rather than
0178   0A??               M         INCF    G2+1,W        ; decrement high byte of dst we inc src
0179   02FF               M         SUBWF   _REG_A+1,F    ; Subtract the high byte and we're done
017A   087E               M         MOVF    _REG_A,W
017B   047F               M         IORWF   _REG_A+1,W
017C   1803           00301     BTFSC   STATUS, C   
017D   2???           00302      GOTO    G_4                        ; it is in the fifth range
                      00303     
                      00304     MOV16   WDATA, TEMP16               ; in this range
017E   002?               M         BANKSEL WDATA
017F   08??               M         MOVF    WDATA,W
0180   002?               M         BANKSEL TEMP16
0181   00??               M         MOVWF   TEMP16
0182   002?               M         BANKSEL WDATA
0183   08??               M         MOVF    WDATA+1,W
0184   002?               M         BANKSEL TEMP16
0185   00??               M         MOVWF   TEMP16+1
                      00305     SUB16   TEMP16, G1                  ; (f - G1)
0186   08??               M         MOVF    G1,W          ; Get low byte of subtrahend
0187   02??               M         SUBWF   TEMP16,F      ; Subtract DST(low) - SRC(low)
0188   08??               M         MOVF    G1+1,W        ; Now get high byte of subtrahend
0189   1C03               M         BTFSS   STATUS,C        ; If there was a borrow, rather than
018A   0A??               M         INCF    G1+1,W        ; decrement high byte of dst we inc src
018B   02??               M         SUBWF   TEMP16+1,F    ; Subtract the high byte and we're done
                      00306     RSF16   TEMP16, GS2                 ; (f - G1) / (1/m >> GS)
                          M         MOV16   TEMP16, SHIFTNUM
018C   002?               M         BANKSEL TEMP16
018D   08??               M         MOVF    TEMP16,W
018E   002?               M         BANKSEL SHIFTNUM
018F   00??               M         MOVWF   SHIFTNUM
0190   002?               M         BANKSEL TEMP16
0191   08??               M         MOVF    TEMP16+1,W
0192   002?               M         BANKSEL SHIFTNUM
0193   00??               M         MOVWF   SHIFTNUM+1
0194   002?               M         BANKSEL GS2
0195   08??               M         MOVFW   GS2
0196   3180               M         PAGESEL RSHIFT16
0197   2???               M         CALL    RSHIFT16
                          M         MOV16   SHIFTNUM, TEMP16
0198   002?               M         BANKSEL SHIFTNUM
0199   08??               M         MOVF    SHIFTNUM,W
019A   002?               M         BANKSEL TEMP16
019B   00??               M         MOVWF   TEMP16
019C   002?               M         BANKSEL SHIFTNUM
019D   08??               M         MOVF    SHIFTNUM+1,W
MPASM 5.77               COLORIZE_ANALOG.ASM   7-21-2018  21:33:50         PAGE 19


LOC  OBJECT CODE     LINE SOURCE TEXT
  VALUE

019E   002?               M         BANKSEL TEMP16
019F   00??               M         MOVWF   TEMP16+1
                      00307     MOVLF   TEMP8, 0xFF
01A0   002?               M         BANKSEL TEMP8
01A1   30FF               M         MOVLW   0xFF
01A2   00??               M         MOVWF   TEMP8
01A3   08??           00308     MOVFW   TEMP16
01A4   02??           00309     SUBWF   TEMP8, F
01A5   002?           00310     BANKSEL WRGB
                      00311     CPYFF   TEMP8, WRGB                 ; WRGB in GRB format
01A6   002?               M         BANKSEL TEMP8
01A7   08??               M         MOVF    TEMP8, W
01A8   002?               M         BANKSEL WRGB
01A9   00??               M         MOVWF   WRGB
01AA   2???           00312     GOTO    SET_RED
                      00313     
01AB                  00314 G_4:    ; fifth range in piecewise
01AB   002?           00315     BANKSEL WRGB
                      00316     MOVLF   WRGB, 0x00
01AC   002?               M         BANKSEL WRGB
01AD   3000               M         MOVLW   0x00
01AE   00??               M         MOVWF   WRGB
                      00317     
                      00318     
                      00319 ; RED PIECEWISE FUNCTION    
                      00320 ;   | 0xFF              , f <= R1
                      00321 ;   | 0xFF - RS2(f-GR), R1 < f <= R2
                      00322 ;   | 0x00              , R2 < f <= R3
                      00323 ;   | RS1(f-R1)         , f > R3
                      00324 ;    
01AF                  00325 SET_RED:
01AF   1003           00326     BCF     STATUS, C
01B0   002?           00327     BANKSEL WDATA
                      00328     CMP16   WDATA, R1
                          M         MOV16   WDATA, _REG_A
01B1   002?               M         BANKSEL WDATA
01B2   08??               M         MOVF    WDATA,W
01B3   0020               M         BANKSEL _REG_A
01B4   00FE               M         MOVWF   _REG_A
01B5   002?               M         BANKSEL WDATA
01B6   08??               M         MOVF    WDATA+1,W
01B7   0020               M         BANKSEL _REG_A
01B8   00FF               M         MOVWF   _REG_A+1
                          M         SUB16   _REG_A,R1
01B9   08??               M         MOVF    R1,W          ; Get low byte of subtrahend
01BA   02FE               M         SUBWF   _REG_A,F      ; Subtract DST(low) - SRC(low)
01BB   08??               M         MOVF    R1+1,W        ; Now get high byte of subtrahend
01BC   1C03               M         BTFSS   STATUS,C        ; If there was a borrow, rather than
01BD   0A??               M         INCF    R1+1,W        ; decrement high byte of dst we inc src
01BE   02FF               M         SUBWF   _REG_A+1,F    ; Subtract the high byte and we're done
01BF   087E               M         MOVF    _REG_A,W
01C0   047F               M         IORWF   _REG_A+1,W
01C1   1C03           00329     BTFSS   STATUS, C                   ; test if WDATA <= R1
MPASM 5.77               COLORIZE_ANALOG.ASM   7-21-2018  21:33:50         PAGE 20


LOC  OBJECT CODE     LINE SOURCE TEXT
  VALUE

01C2   2???           00330     GOTO    R_1
01C3   2???           00331     GOTO    R_12
01C4                  00332 R_1:    ; WDATA <= R1
01C4   002?           00333     BANKSEL WRGB
                      00334     MOVLF   WRGB+1, 0xFF
01C5   002?               M         BANKSEL WRGB+1
01C6   30FF               M         MOVLW   0xFF
01C7   00??               M         MOVWF   WRGB+1
01C8   2???           00335     GOTO    SET_BLUE
                      00336     
01C9                  00337 R_12:   ; R1 < WDATA <= R2 
01C9   1003           00338     BCF     STATUS, C
01CA   002?           00339     BANKSEL WDATA
                      00340     CMP16   WDATA, R2
                          M         MOV16   WDATA, _REG_A
01CB   002?               M         BANKSEL WDATA
01CC   08??               M         MOVF    WDATA,W
01CD   0020               M         BANKSEL _REG_A
01CE   00FE               M         MOVWF   _REG_A
01CF   002?               M         BANKSEL WDATA
01D0   08??               M         MOVF    WDATA+1,W
01D1   0020               M         BANKSEL _REG_A
01D2   00FF               M         MOVWF   _REG_A+1
                          M         SUB16   _REG_A,R2
01D3   08??               M         MOVF    R2,W          ; Get low byte of subtrahend
01D4   02FE               M         SUBWF   _REG_A,F      ; Subtract DST(low) - SRC(low)
01D5   08??               M         MOVF    R2+1,W        ; Now get high byte of subtrahend
01D6   1C03               M         BTFSS   STATUS,C        ; If there was a borrow, rather than
01D7   0A??               M         INCF    R2+1,W        ; decrement high byte of dst we inc src
01D8   02FF               M         SUBWF   _REG_A+1,F    ; Subtract the high byte and we're done
01D9   087E               M         MOVF    _REG_A,W
01DA   047F               M         IORWF   _REG_A+1,W
01DB   1803           00341     BTFSC   STATUS, C   
01DC   2???           00342      GOTO    R_23                       ; go to R_23 if WDATA not within range of R_12
                      00343     
                      00344     MOV16   WDATA, TEMP16               ; (f - R1)
01DD   002?               M         BANKSEL WDATA
01DE   08??               M         MOVF    WDATA,W
01DF   002?               M         BANKSEL TEMP16
01E0   00??               M         MOVWF   TEMP16
01E1   002?               M         BANKSEL WDATA
01E2   08??               M         MOVF    WDATA+1,W
01E3   002?               M         BANKSEL TEMP16
01E4   00??               M         MOVWF   TEMP16+1
                      00345     SUB16   TEMP16, R1
01E5   08??               M         MOVF    R1,W          ; Get low byte of subtrahend
01E6   02??               M         SUBWF   TEMP16,F      ; Subtract DST(low) - SRC(low)
01E7   08??               M         MOVF    R1+1,W        ; Now get high byte of subtrahend
01E8   1C03               M         BTFSS   STATUS,C        ; If there was a borrow, rather than
01E9   0A??               M         INCF    R1+1,W        ; decrement high byte of dst we inc src
01EA   02??               M         SUBWF   TEMP16+1,F    ; Subtract the high byte and we're done
                      00346     RSF16   TEMP16, RS1                 ; (f - R1) / (1/m >> RS)
                          M         MOV16   TEMP16, SHIFTNUM
MPASM 5.77               COLORIZE_ANALOG.ASM   7-21-2018  21:33:50         PAGE 21


LOC  OBJECT CODE     LINE SOURCE TEXT
  VALUE

01EB   002?               M         BANKSEL TEMP16
01EC   08??               M         MOVF    TEMP16,W
01ED   002?               M         BANKSEL SHIFTNUM
01EE   00??               M         MOVWF   SHIFTNUM
01EF   002?               M         BANKSEL TEMP16
01F0   08??               M         MOVF    TEMP16+1,W
01F1   002?               M         BANKSEL SHIFTNUM
01F2   00??               M         MOVWF   SHIFTNUM+1
01F3   002?               M         BANKSEL RS1
01F4   08??               M         MOVFW   RS1
01F5   3180               M         PAGESEL RSHIFT16
01F6   2???               M         CALL    RSHIFT16
                          M         MOV16   SHIFTNUM, TEMP16
01F7   002?               M         BANKSEL SHIFTNUM
01F8   08??               M         MOVF    SHIFTNUM,W
01F9   002?               M         BANKSEL TEMP16
01FA   00??               M         MOVWF   TEMP16
01FB   002?               M         BANKSEL SHIFTNUM
01FC   08??               M         MOVF    SHIFTNUM+1,W
01FD   002?               M         BANKSEL TEMP16
01FE   00??               M         MOVWF   TEMP16+1
                      00347     MOVLF   TEMP8, 0xFF
01FF   002?               M         BANKSEL TEMP8
0200   30FF               M         MOVLW   0xFF
0201   00??               M         MOVWF   TEMP8
0202   08??           00348     MOVFW   TEMP16
0203   02??           00349     SUBWF   TEMP8, F
0204   002?           00350     BANKSEL WRGB
                      00351     CPYFF   TEMP8, WRGB+1               ; WRGB in GRB format
0205   002?               M         BANKSEL TEMP8
0206   08??               M         MOVF    TEMP8, W
0207   002?               M         BANKSEL WRGB+1
0208   00??               M         MOVWF   WRGB+1
0209   2???           00352     GOTO    SET_BLUE
                      00353     
020A                  00354 R_23:   ; R2 < WDATA <= R3 
020A   1003           00355     BCF     STATUS, C
020B   002?           00356     BANKSEL WDATA
                      00357     CMP16   WDATA, R3
                          M         MOV16   WDATA, _REG_A
020C   002?               M         BANKSEL WDATA
020D   08??               M         MOVF    WDATA,W
020E   0020               M         BANKSEL _REG_A
020F   00FE               M         MOVWF   _REG_A
0210   002?               M         BANKSEL WDATA
0211   08??               M         MOVF    WDATA+1,W
0212   0020               M         BANKSEL _REG_A
0213   00FF               M         MOVWF   _REG_A+1
                          M         SUB16   _REG_A,R3
0214   08??               M         MOVF    R3,W          ; Get low byte of subtrahend
0215   02FE               M         SUBWF   _REG_A,F      ; Subtract DST(low) - SRC(low)
0216   08??               M         MOVF    R3+1,W        ; Now get high byte of subtrahend
0217   1C03               M         BTFSS   STATUS,C        ; If there was a borrow, rather than
MPASM 5.77               COLORIZE_ANALOG.ASM   7-21-2018  21:33:50         PAGE 22


LOC  OBJECT CODE     LINE SOURCE TEXT
  VALUE

0218   0A??               M         INCF    R3+1,W        ; decrement high byte of dst we inc src
0219   02FF               M         SUBWF   _REG_A+1,F    ; Subtract the high byte and we're done
021A   087E               M         MOVF    _REG_A,W
021B   047F               M         IORWF   _REG_A+1,W
021C   1803           00358     BTFSC   STATUS, C   
021D   2???           00359      GOTO    R_3
                      00360     
021E   002?           00361     BANKSEL WRGB
                      00362     MOVLF   WRGB+1, 0x00
021F   002?               M         BANKSEL WRGB+1
0220   3000               M         MOVLW   0x00
0221   00??               M         MOVWF   WRGB+1
0222   2???           00363     GOTO    SET_BLUE
                      00364     
0223                  00365 R_3:    ; WDATA > R3
0223   1003           00366     BCF     STATUS, C
0224   002?           00367     BANKSEL WDATA
                      00368     MOV16   WDATA, TEMP16               ; (f - R1)
0225   002?               M         BANKSEL WDATA
0226   08??               M         MOVF    WDATA,W
0227   002?               M         BANKSEL TEMP16
0228   00??               M         MOVWF   TEMP16
0229   002?               M         BANKSEL WDATA
022A   08??               M         MOVF    WDATA+1,W
022B   002?               M         BANKSEL TEMP16
022C   00??               M         MOVWF   TEMP16+1
                      00369     SUB16   TEMP16, R3
022D   08??               M         MOVF    R3,W          ; Get low byte of subtrahend
022E   02??               M         SUBWF   TEMP16,F      ; Subtract DST(low) - SRC(low)
022F   08??               M         MOVF    R3+1,W        ; Now get high byte of subtrahend
0230   1C03               M         BTFSS   STATUS,C        ; If there was a borrow, rather than
0231   0A??               M         INCF    R3+1,W        ; decrement high byte of dst we inc src
0232   02??               M         SUBWF   TEMP16+1,F    ; Subtract the high byte and we're done
                      00370     RSF16   TEMP16, RS2                 ; (f - R1) / (1/m >> RS)
                          M         MOV16   TEMP16, SHIFTNUM
0233   002?               M         BANKSEL TEMP16
0234   08??               M         MOVF    TEMP16,W
0235   002?               M         BANKSEL SHIFTNUM
0236   00??               M         MOVWF   SHIFTNUM
0237   002?               M         BANKSEL TEMP16
0238   08??               M         MOVF    TEMP16+1,W
0239   002?               M         BANKSEL SHIFTNUM
023A   00??               M         MOVWF   SHIFTNUM+1
023B   002?               M         BANKSEL RS2
023C   08??               M         MOVFW   RS2
023D   3180               M         PAGESEL RSHIFT16
023E   2???               M         CALL    RSHIFT16
                          M         MOV16   SHIFTNUM, TEMP16
023F   002?               M         BANKSEL SHIFTNUM
0240   08??               M         MOVF    SHIFTNUM,W
0241   002?               M         BANKSEL TEMP16
0242   00??               M         MOVWF   TEMP16
0243   002?               M         BANKSEL SHIFTNUM
MPASM 5.77               COLORIZE_ANALOG.ASM   7-21-2018  21:33:50         PAGE 23


LOC  OBJECT CODE     LINE SOURCE TEXT
  VALUE

0244   08??               M         MOVF    SHIFTNUM+1,W
0245   002?               M         BANKSEL TEMP16
0246   00??               M         MOVWF   TEMP16+1
0247   002?           00371     BANKSEL WRGB
                      00372     CPYFF   TEMP16, WRGB+1              ; WRGB in GRB format
0248   002?               M         BANKSEL TEMP16
0249   08??               M         MOVF    TEMP16, W
024A   002?               M         BANKSEL WRGB+1
024B   00??               M         MOVWF   WRGB+1
                      00373     
024C                  00374 SET_BLUE:    
024C   1003           00375     BCF     STATUS, C
024D   002?           00376     BANKSEL WDATA
                      00377     CMP16   WDATA, B1                   ; check for first range in piecewise
                          M         MOV16   WDATA, _REG_A
024E   002?               M         BANKSEL WDATA
024F   08??               M         MOVF    WDATA,W
0250   0020               M         BANKSEL _REG_A
0251   00FE               M         MOVWF   _REG_A
0252   002?               M         BANKSEL WDATA
0253   08??               M         MOVF    WDATA+1,W
0254   0020               M         BANKSEL _REG_A
0255   00FF               M         MOVWF   _REG_A+1
                          M         SUB16   _REG_A,B1
0256   08??               M         MOVF    B1,W          ; Get low byte of subtrahend
0257   02FE               M         SUBWF   _REG_A,F      ; Subtract DST(low) - SRC(low)
0258   08??               M         MOVF    B1+1,W        ; Now get high byte of subtrahend
0259   1C03               M         BTFSS   STATUS,C        ; If there was a borrow, rather than
025A   0A??               M         INCF    B1+1,W        ; decrement high byte of dst we inc src
025B   02FF               M         SUBWF   _REG_A+1,F    ; Subtract the high byte and we're done
025C   087E               M         MOVF    _REG_A,W
025D   047F               M         IORWF   _REG_A+1,W
025E   1C03           00378     BTFSS   STATUS, C                   
025F   2???           00379     GOTO    B_1                         ; within first range
0260   2???           00380     GOTO    B_12                        ; MIGHT be in the next range
0261                  00381 B_1:    ; first range in piecewise
0261   002?           00382     BANKSEL WRGB
                      00383     MOVLF   WRGB, 0x00
0262   002?               M         BANKSEL WRGB
0263   3000               M         MOVLW   0x00
0264   00??               M         MOVWF   WRGB
0265   0008           00384     RETURN
                      00385     
0266                  00386 B_12:   ; second range in piecewise
0266   1003           00387     BCF     STATUS, C
0267   002?           00388     BANKSEL WDATA
                      00389     CMP16   WDATA, B2
                          M         MOV16   WDATA, _REG_A
0268   002?               M         BANKSEL WDATA
0269   08??               M         MOVF    WDATA,W
026A   0020               M         BANKSEL _REG_A
026B   00FE               M         MOVWF   _REG_A
026C   002?               M         BANKSEL WDATA
MPASM 5.77               COLORIZE_ANALOG.ASM   7-21-2018  21:33:50         PAGE 24


LOC  OBJECT CODE     LINE SOURCE TEXT
  VALUE

026D   08??               M         MOVF    WDATA+1,W
026E   0020               M         BANKSEL _REG_A
026F   00FF               M         MOVWF   _REG_A+1
                          M         SUB16   _REG_A,B2
0270   08??               M         MOVF    B2,W          ; Get low byte of subtrahend
0271   02FE               M         SUBWF   _REG_A,F      ; Subtract DST(low) - SRC(low)
0272   08??               M         MOVF    B2+1,W        ; Now get high byte of subtrahend
0273   1C03               M         BTFSS   STATUS,C        ; If there was a borrow, rather than
0274   0A??               M         INCF    B2+1,W        ; decrement high byte of dst we inc src
0275   02FF               M         SUBWF   _REG_A+1,F    ; Subtract the high byte and we're done
0276   087E               M         MOVF    _REG_A,W
0277   047F               M         IORWF   _REG_A+1,W
0278   1803           00390     BTFSC   STATUS, C   
0279   2???           00391      GOTO    B_23                       ; might be in the next range 
                      00392     
                      00393     MOV16   WDATA, TEMP16               ; in this range
027A   002?               M         BANKSEL WDATA
027B   08??               M         MOVF    WDATA,W
027C   002?               M         BANKSEL TEMP16
027D   00??               M         MOVWF   TEMP16
027E   002?               M         BANKSEL WDATA
027F   08??               M         MOVF    WDATA+1,W
0280   002?               M         BANKSEL TEMP16
0281   00??               M         MOVWF   TEMP16+1
                      00394     SUB16   TEMP16, B1                  ; (f - G1)
0282   08??               M         MOVF    B1,W          ; Get low byte of subtrahend
0283   02??               M         SUBWF   TEMP16,F      ; Subtract DST(low) - SRC(low)
0284   08??               M         MOVF    B1+1,W        ; Now get high byte of subtrahend
0285   1C03               M         BTFSS   STATUS,C        ; If there was a borrow, rather than
0286   0A??               M         INCF    B1+1,W        ; decrement high byte of dst we inc src
0287   02??               M         SUBWF   TEMP16+1,F    ; Subtract the high byte and we're done
                      00395     RSF16   TEMP16, BS1                 ; (f - G1) / (1/m >> GS)
                          M         MOV16   TEMP16, SHIFTNUM
0288   002?               M         BANKSEL TEMP16
0289   08??               M         MOVF    TEMP16,W
028A   002?               M         BANKSEL SHIFTNUM
028B   00??               M         MOVWF   SHIFTNUM
028C   002?               M         BANKSEL TEMP16
028D   08??               M         MOVF    TEMP16+1,W
028E   002?               M         BANKSEL SHIFTNUM
028F   00??               M         MOVWF   SHIFTNUM+1
0290   002?               M         BANKSEL BS1
0291   08??               M         MOVFW   BS1
0292   3180               M         PAGESEL RSHIFT16
0293   2???               M         CALL    RSHIFT16
                          M         MOV16   SHIFTNUM, TEMP16
0294   002?               M         BANKSEL SHIFTNUM
0295   08??               M         MOVF    SHIFTNUM,W
0296   002?               M         BANKSEL TEMP16
0297   00??               M         MOVWF   TEMP16
0298   002?               M         BANKSEL SHIFTNUM
0299   08??               M         MOVF    SHIFTNUM+1,W
029A   002?               M         BANKSEL TEMP16
MPASM 5.77               COLORIZE_ANALOG.ASM   7-21-2018  21:33:50         PAGE 25


LOC  OBJECT CODE     LINE SOURCE TEXT
  VALUE

029B   00??               M         MOVWF   TEMP16+1
029C   002?           00396     BANKSEL WRGB
                      00397     CPYFF   TEMP16, WRGB                ; WRGB in GRB format
029D   002?               M         BANKSEL TEMP16
029E   08??               M         MOVF    TEMP16, W
029F   002?               M         BANKSEL WRGB
02A0   00??               M         MOVWF   WRGB
02A1   0008           00398     RETURN
                      00399     
02A2                  00400 B_23:   ; third range in piecewise
02A2   1003           00401     BCF     STATUS, C
02A3   002?           00402     BANKSEL WRGB                         
                      00403     MOVLF   WRGB, 0xFF
02A4   002?               M         BANKSEL WRGB
02A5   30FF               M         MOVLW   0xFF
02A6   00??               M         MOVWF   WRGB
02A7   0008           00404     RETURN
                      00405 
                      00406     
                      00407     END
MPASM 5.77               COLORIZE_ANALOG.ASM   7-21-2018  21:33:50         PAGE 26


SYMBOL TABLE
  LABEL                             VALUE 

ABDEN                             00000000
ABDOVF                            00000007
ACC0                              00000000
ACC1                              00000001
ACC10                             00000002
ACC11                             00000003
ACC12                             00000004
ACC13                             00000005
ACC14                             00000006
ACC15                             00000007
ACC16                             00000000
ACC17                             00000001
ACC18                             00000002
ACC19                             00000003
ACC2                              00000002
ACC20                             00000004
ACC21                             00000005
ACC22                             00000006
ACC23                             00000007
ACC24                             00000000
ACC25                             00000001
ACC26                             00000002
ACC27                             00000003
ACC28                             00000004
ACC29                             00000005
ACC3                              00000003
ACC30                             00000006
ACC31                             00000007
ACC32                             00000000
ACC33                             00000001
ACC34                             00000002
ACC4                              00000004
ACC5                              00000005
ACC6                              00000006
ACC7                              00000007
ACC8                              00000000
ACC9                              00000001
ACCM                              00000004
ACCS                              00000001
ACKDT                             00000005
ACKEN                             00000004
ACKSTAT                           00000006
ACKTIM                            00000007
ACQ                               00000032
ACQ_DELAY                         
ADCON0                            0000009D
ADCON1                            0000009E
ADCON2                            0000009F
ADCS0                             00000004
ADCS1                             00000005
ADCS2                             00000006
ADC_ANSEL                         ANSA4
ADC_CH                            AN3
MPASM 5.77               COLORIZE_ANALOG.ASM   7-21-2018  21:33:50         PAGE 27


SYMBOL TABLE
  LABEL                             VALUE 

ADC_TRIS                          TRISA4
ADD0                              00000000
ADD1                              00000001
ADD16                             
ADD2                              00000002
ADD3                              00000003
ADD4                              00000004
ADD5                              00000005
ADD6                              00000006
ADD7                              00000007
ADDEN                             00000003
ADDI16                            
ADFM                              00000007
ADFVR0                            00000000
ADFVR1                            00000001
ADGO                              00000001
ADIE                              00000006
ADIF                              00000006
ADON                              00000000
ADPREF0                           00000000
ADPREF1                           00000001
ADRES                             0000009B
ADRESH                            0000009C
ADRESL                            0000009B
AHEN                              00000001
AMPL_WAV                          00000025
ANSA0                             00000000
ANSA1                             00000001
ANSA2                             00000002
ANSA4                             00000004
ANSC0                             00000000
ANSC1                             00000001
ANSC2                             00000002
ANSC3                             00000003
ANSELA                            0000018C
ANSELC                            0000018E
APMOD                             00000001
AS                                00000000
AT1ACCS                           00000001
AT1APMOD                          00000001
AT1CAP1P                          00000003
AT1CAP2P                          00000003
AT1CAP3P                          00000003
AT1CC1                            0000088F
AT1CC10                           00000000
AT1CC11                           00000001
AT1CC12                           00000002
AT1CC13                           00000003
AT1CC14                           00000004
AT1CC15                           00000005
AT1CC16                           00000006
AT1CC17                           00000007
AT1CC18                           00000000
MPASM 5.77               COLORIZE_ANALOG.ASM   7-21-2018  21:33:50         PAGE 28


SYMBOL TABLE
  LABEL                             VALUE 

AT1CC19                           00000001
AT1CC1EN                          00000007
AT1CC1H                           00000890
AT1CC1IE                          00000000
AT1CC1IF                          00000000
AT1CC1L                           0000088F
AT1CC1MODE                        00000000
AT1CC1POL                         00000004
AT1CC2                            00000893
AT1CC20                           00000000
AT1CC21                           00000001
AT1CC22                           00000002
AT1CC23                           00000003
AT1CC24                           00000004
AT1CC25                           00000005
AT1CC26                           00000006
AT1CC27                           00000007
AT1CC28                           00000000
AT1CC29                           00000001
AT1CC2EN                          00000007
AT1CC2H                           00000894
AT1CC2IE                          00000001
AT1CC2IF                          00000001
AT1CC2L                           00000893
AT1CC2MODE                        00000000
AT1CC2POL                         00000004
AT1CC3                            00000897
AT1CC30                           00000000
AT1CC31                           00000001
AT1CC32                           00000002
AT1CC33                           00000003
AT1CC34                           00000004
AT1CC35                           00000005
AT1CC36                           00000006
AT1CC37                           00000007
AT1CC38                           00000000
AT1CC39                           00000001
AT1CC3EN                          00000007
AT1CC3H                           00000898
AT1CC3IE                          00000002
AT1CC3IF                          00000002
AT1CC3L                           00000897
AT1CC3MODE                        00000000
AT1CC3POL                         00000004
AT1CCON1                          00000891
AT1CCON2                          00000895
AT1CCON3                          00000899
AT1CLK                            0000088C
AT1CON0                           00000814
AT1CON1                           00000815
AT1CP1S0                          00000000
AT1CP1S1                          00000001
AT1CP1S2                          00000002
MPASM 5.77               COLORIZE_ANALOG.ASM   7-21-2018  21:33:50         PAGE 29


SYMBOL TABLE
  LABEL                             VALUE 

AT1CP2S0                          00000000
AT1CP2S1                          00000001
AT1CP2S2                          00000002
AT1CP3S0                          00000000
AT1CP3S1                          00000001
AT1CP3S2                          00000002
AT1CS                             00000000
AT1CS0                            00000000
AT1CSEL1                          0000088E
AT1CSEL2                          00000892
AT1CSEL3                          00000896
AT1EN                             00000007
AT1ERR                            0000081C
AT1ERR0                           00000000
AT1ERR1                           00000001
AT1ERR10                          00000002
AT1ERR11                          00000003
AT1ERR12                          00000004
AT1ERR13                          00000005
AT1ERR14                          00000006
AT1ERR15                          00000007
AT1ERR2                           00000002
AT1ERR3                           00000003
AT1ERR4                           00000004
AT1ERR5                           00000005
AT1ERR6                           00000006
AT1ERR7                           00000007
AT1ERR8                           00000000
AT1ERR9                           00000001
AT1ERRH                           0000081D
AT1ERRL                           0000081C
AT1IE                             00000002
AT1IE0                            00000817
AT1IE1                            00000819
AT1IF                             00000002
AT1IR0                            00000816
AT1IR1                            00000818
AT1MISS                           0000080E
AT1MISS0                          00000000
AT1MISS1                          00000001
AT1MISS10                         00000002
AT1MISS11                         00000003
AT1MISS12                         00000004
AT1MISS13                         00000005
AT1MISS14                         00000006
AT1MISS15                         00000007
AT1MISS2                          00000002
AT1MISS3                          00000003
AT1MISS4                          00000004
AT1MISS5                          00000005
AT1MISS6                          00000006
AT1MISS7                          00000007
AT1MISS8                          00000000
MPASM 5.77               COLORIZE_ANALOG.ASM   7-21-2018  21:33:50         PAGE 30


SYMBOL TABLE
  LABEL                             VALUE 

AT1MISS9                          00000001
AT1MISSH                          0000080F
AT1MISSIE                         00000001
AT1MISSIF                         00000001
AT1MISSL                          0000080E
AT1MODE                           00000000
AT1MPP                            00000002
AT1PER                            00000810
AT1PER0                           00000000
AT1PER1                           00000001
AT1PER10                          00000002
AT1PER11                          00000003
AT1PER12                          00000004
AT1PER13                          00000005
AT1PER14                          00000006
AT1PER2                           00000002
AT1PER3                           00000003
AT1PER4                           00000004
AT1PER5                           00000005
AT1PER6                           00000006
AT1PER7                           00000007
AT1PER8                           00000000
AT1PER9                           00000001
AT1PERH                           00000811
AT1PERIE                          00000000
AT1PERIF                          00000000
AT1PERL                           00000810
AT1PHP                            00000006
AT1PHS                            00000812
AT1PHS0                           00000000
AT1PHS1                           00000001
AT1PHS2                           00000002
AT1PHS3                           00000003
AT1PHS4                           00000004
AT1PHS5                           00000005
AT1PHS6                           00000006
AT1PHS7                           00000007
AT1PHS8                           00000000
AT1PHS9                           00000001
AT1PHSH                           00000813
AT1PHSIE                          00000002
AT1PHSIF                          00000002
AT1PHSL                           00000812
AT1POL                            00000003
AT1POV                            00000007
AT1PREC                           00000006
AT1PRP                            00000004
AT1PS0                            00000004
AT1PS1                            00000005
AT1RES                            0000080C
AT1RES0                           00000000
AT1RES1                           00000001
AT1RES2                           00000002
MPASM 5.77               COLORIZE_ANALOG.ASM   7-21-2018  21:33:50         PAGE 31


SYMBOL TABLE
  LABEL                             VALUE 

AT1RES3                           00000003
AT1RES4                           00000004
AT1RES5                           00000005
AT1RES6                           00000006
AT1RES7                           00000007
AT1RES8                           00000000
AT1RES9                           00000001
AT1RESH                           0000080D
AT1RESL                           0000080C
AT1SIG                            0000088D
AT1SSEL0                          00000000
AT1SSEL1                          00000001
AT1SSEL2                          00000002
AT1STPT                           0000081A
AT1STPT0                          00000000
AT1STPT1                          00000001
AT1STPT10                         00000002
AT1STPT11                         00000003
AT1STPT12                         00000004
AT1STPT13                         00000005
AT1STPT14                         00000006
AT1STPT2                          00000002
AT1STPT3                          00000003
AT1STPT4                          00000004
AT1STPT5                          00000005
AT1STPT6                          00000006
AT1STPT7                          00000007
AT1STPT8                          00000000
AT1STPT9                          00000001
AT1STPTH                          0000081B
AT1STPTL                          0000081A
AT1VALID                          00000000
ATCC1PPS                          00000E1F
ATCC1PPS0                         00000000
ATCC1PPS1                         00000001
ATCC1PPS2                         00000002
ATCC1PPS3                         00000003
ATCC1PPS4                         00000004
ATCC2PPS                          00000E23
ATCC2PPS0                         00000000
ATCC2PPS1                         00000001
ATCC2PPS2                         00000002
ATCC2PPS3                         00000003
ATCC2PPS4                         00000004
ATCC3PPS                          00000E2E
ATCC3PPS0                         00000000
ATCC3PPS1                         00000001
ATCC3PPS2                         00000002
ATCC3PPS3                         00000003
ATCC3PPS4                         00000004
ATINPPS                           00000E16
ATINPPS0                          00000000
ATINPPS1                          00000001
MPASM 5.77               COLORIZE_ANALOG.ASM   7-21-2018  21:33:50         PAGE 32


SYMBOL TABLE
  LABEL                             VALUE 

ATINPPS2                          00000002
ATINPPS3                          00000003
ATINPPS4                          00000004
B1                                00000044
B2                                00000046
BAUD1CON                          0000019F
BAUDCON                           0000019F
BAUDCON1                          0000019F
BAUDCTL                           0000019F
BAUDCTL1                          0000019F
BCL1IE                            00000003
BCL1IF                            00000003
BF                                00000000
BOEN                              00000004
BORCON                            00000116
BORFS                             00000006
BORRDY                            00000000
BRG16                             00000003
BRGH                              00000002
BS1                               00000043
BSR                               00000008
BSR0                              00000000
BSR1                              00000001
BSR2                              00000002
BSR3                              00000003
BSR4                              00000004
BSR_SHAD                          00000FE6
BUF0                              00000000
BUF1                              00000001
BUF2                              00000002
BUF3                              00000003
BUF4                              00000004
BUF5                              00000005
BUF6                              00000006
BUF7                              00000007
BUSY_CRCCON0                      00000005
BUSY_PID1CON                      00000006
BUSY_SCANCON0                     00000005
B_1                               00000261
B_12                              00000266
B_23                              000002A2
C                                 00000000
C1AS                              00000001
C1HYS                             00000001
C1IE                              00000005
C1IF                              00000005
C1INTN                            00000006
C1INTP                            00000007
C1NCH0                            00000000
C1NCH1                            00000001
C1NCH2                            00000002
C1ON                              00000007
C1OUT                             00000006
MPASM 5.77               COLORIZE_ANALOG.ASM   7-21-2018  21:33:50         PAGE 33


SYMBOL TABLE
  LABEL                             VALUE 

C1PCH0                            00000004
C1PCH1                            00000005
C1POL                             00000004
C1SP                              00000002
C1SYNC                            00000000
C2AS                              00000002
C2HYS                             00000001
C2IE                              00000006
C2IF                              00000006
C2INTN                            00000006
C2INTP                            00000007
C2NCH0                            00000000
C2NCH1                            00000001
C2NCH2                            00000002
C2ON                              00000007
C2OUT                             00000006
C2PCH0                            00000004
C2PCH1                            00000005
C2POL                             00000004
C2SP                              00000002
C2SYNC                            00000000
CAP1P                             00000003
CAP2P                             00000003
CAP3P                             00000003
CC10                              00000000
CC11                              00000001
CC12                              00000002
CC13                              00000003
CC14                              00000004
CC15                              00000005
CC16                              00000006
CC17                              00000007
CC18                              00000000
CC19                              00000001
CC1EN                             00000007
CC1MODE                           00000000
CC1POL                            00000004
CC20                              00000000
CC21                              00000001
CC22                              00000002
CC24                              00000004
CC26                              00000006
CC27                              00000007
CC28                              00000000
CC29                              00000001
CC2EN                             00000007
CC2MODE                           00000000
CC2POL                            00000004
CC30                              00000000
CC31                              00000001
CC32                              00000002
CC33                              00000003
CC34                              00000004
MPASM 5.77               COLORIZE_ANALOG.ASM   7-21-2018  21:33:50         PAGE 34


SYMBOL TABLE
  LABEL                             VALUE 

CC35                              00000005
CC36                              00000006
CC37                              00000007
CC38                              00000000
CC39                              00000001
CC3EN                             00000007
CC3MODE                           00000000
CC3POL                            00000004
CCP1CAP                           00000294
CCP1CON                           00000293
CCP1CTS0                          00000000
CCP1CTS1                          00000001
CCP1CTS2                          00000002
CCP1EN                            00000007
CCP1FMT                           00000004
CCP1IE                            00000002
CCP1IF                            00000002
CCP1MODE0                         00000000
CCP1MODE1                         00000001
CCP1MODE2                         00000002
CCP1MODE3                         00000003
CCP1OUT                           00000005
CCP1PPS                           00000E14
CCP1PPS0                          00000000
CCP1PPS1                          00000001
CCP1PPS2                          00000002
CCP1PPS3                          00000003
CCP1PPS4                          00000004
CCP1TSEL0                         00000000
CCP1TSEL1                         00000001
CCP2CAP                           0000029B
CCP2CON                           0000029A
CCP2CTS0                          00000000
CCP2CTS1                          00000001
CCP2CTS2                          00000002
CCP2EN                            00000007
CCP2FMT                           00000004
CCP2IE                            00000000
CCP2IF                            00000000
CCP2MODE0                         00000000
CCP2MODE1                         00000001
CCP2MODE2                         00000002
CCP2MODE3                         00000003
CCP2OUT                           00000005
CCP2PPS                           00000E15
CCP2PPS0                          00000000
CCP2PPS1                          00000001
CCP2PPS2                          00000002
CCP2PPS3                          00000003
CCP2PPS4                          00000004
CCP2TSEL0                         00000002
CCP2TSEL1                         00000003
CCPR1                             00000291
MPASM 5.77               COLORIZE_ANALOG.ASM   7-21-2018  21:33:50         PAGE 35


SYMBOL TABLE
  LABEL                             VALUE 

CCPR1H                            00000292
CCPR1L                            00000291
CCPR2                             00000298
CCPR2H                            00000299
CCPR2L                            00000298
CCPTMRS                           0000029E
CCW5                              00000005
CDAFVR0                           00000002
CDAFVR1                           00000003
CFGS                              00000006
CHS0                              00000002
CHS1                              00000003
CHS2                              00000004
CHS3                              00000005
CHS4                              00000006
CKE                               00000006
CKP                               00000004
CKPOL                             00000006
CKPPS                             00000E25
CKPPS0                            00000000
CKPPS1                            00000001
CKPPS2                            00000002
CKPPS3                            00000003
CKPPS4                            00000004
CKPS0                             00000004
CKPS1                             00000005
CKPS2                             00000006
CKSYNC                            00000005
CLC1CON                           00000F10
CLC1GLS0                          00000F16
CLC1GLS1                          00000F17
CLC1GLS2                          00000F18
CLC1GLS3                          00000F19
CLC1IE                            00000000
CLC1IF                            00000000
CLC1POL                           00000F11
CLC1SEL0                          00000F12
CLC1SEL1                          00000F13
CLC1SEL2                          00000F14
CLC1SEL3                          00000F15
CLC2CON                           00000F1A
CLC2GLS0                          00000F20
CLC2GLS1                          00000F21
CLC2GLS2                          00000F22
CLC2GLS3                          00000F23
CLC2IE                            00000001
CLC2IF                            00000001
CLC2POL                           00000F1B
CLC2SEL0                          00000F1C
CLC2SEL1                          00000F1D
CLC2SEL2                          00000F1E
CLC2SEL3                          00000F1F
CLC3CON                           00000F24
MPASM 5.77               COLORIZE_ANALOG.ASM   7-21-2018  21:33:50         PAGE 36


SYMBOL TABLE
  LABEL                             VALUE 

CLC3GLS0                          00000F2A
CLC3GLS1                          00000F2B
CLC3GLS2                          00000F2C
CLC3GLS3                          00000F2D
CLC3IE                            00000002
CLC3IF                            00000002
CLC3POL                           00000F25
CLC3SEL0                          00000F26
CLC3SEL1                          00000F27
CLC3SEL2                          00000F28
CLC3SEL3                          00000F29
CLC4CON                           00000F2E
CLC4GLS0                          00000F34
CLC4GLS1                          00000F35
CLC4GLS2                          00000F36
CLC4GLS3                          00000F37
CLC4IE                            00000003
CLC4IF                            00000003
CLC4POL                           00000F2F
CLC4SEL0                          00000F30
CLC4SEL1                          00000F31
CLC4SEL2                          00000F32
CLC4SEL3                          00000F33
CLCDATA                           00000F0F
CLCIN0PPS                         00000E28
CLCIN0PPS0                        00000000
CLCIN0PPS1                        00000001
CLCIN0PPS2                        00000002
CLCIN0PPS3                        00000003
CLCIN0PPS4                        00000004
CLCIN1PPS                         00000E29
CLCIN1PPS0                        00000000
CLCIN1PPS1                        00000001
CLCIN1PPS2                        00000002
CLCIN1PPS3                        00000003
CLCIN1PPS4                        00000004
CLCIN2PPS                         00000E2A
CLCIN2PPS0                        00000000
CLCIN2PPS1                        00000001
CLCIN2PPS2                        00000002
CLCIN2PPS3                        00000003
CLCIN2PPS4                        00000004
CLCIN3PPS                         00000E2B
CLCIN3PPS0                        00000000
CLCIN3PPS1                        00000001
CLCIN3PPS2                        00000002
CLCIN3PPS3                        00000003
CLCIN3PPS4                        00000004
CLR16                             
CLRSTAT                           
CM1CON0                           00000111
CM1CON1                           00000112
CM2CON0                           00000113
MPASM 5.77               COLORIZE_ANALOG.ASM   7-21-2018  21:33:50         PAGE 37


SYMBOL TABLE
  LABEL                             VALUE 

CM2CON1                           00000114
CMOUT                             00000115
CMP16                             
CP1S0                             00000000
CP1S1                             00000001
CP1S2                             00000002
CP2S0                             00000000
CP2S1                             00000001
CP2S2                             00000002
CP3S0                             00000000
CP3S1                             00000001
CP3S2                             00000002
CPOL                              00000002
CPRUP                             00000007
CPWUP                             00000006
CPYFF                             
CRCACC                            00000793
CRCACC0                           00000000
CRCACC1                           00000001
CRCACC10                          00000002
CRCACC11                          00000003
CRCACC12                          00000004
CRCACC13                          00000005
CRCACC14                          00000006
CRCACC15                          00000007
CRCACC2                           00000002
CRCACC3                           00000003
CRCACC4                           00000004
CRCACC5                           00000005
CRCACC6                           00000006
CRCACC7                           00000007
CRCACC8                           00000000
CRCACC9                           00000001
CRCACCH                           00000794
CRCACCL                           00000793
CRCACCM                           00000004
CRCBUSY                           00000005
CRCCON0                           00000799
CRCCON1                           0000079A
CRCDAT                            00000791
CRCDAT0                           00000000
CRCDAT1                           00000001
CRCDAT10                          00000002
CRCDAT11                          00000003
CRCDAT12                          00000004
CRCDAT13                          00000005
CRCDAT14                          00000006
CRCDAT15                          00000007
CRCDAT2                           00000002
CRCDAT3                           00000003
CRCDAT4                           00000004
CRCDAT5                           00000005
CRCDAT6                           00000006
MPASM 5.77               COLORIZE_ANALOG.ASM   7-21-2018  21:33:50         PAGE 38


SYMBOL TABLE
  LABEL                             VALUE 

CRCDAT8                           00000000
CRCDAT9                           00000001
CRCDATH                           00000792
CRCDATL                           00000791
CRCDLEN0                          00000004
CRCDLEN1                          00000005
CRCDLEN2                          00000006
CRCDLEN3                          00000007
CRCEN                             00000007
CRCFULL                           00000000
CRCGO                             00000006
CRCIE                             00000006
CRCIF                             00000006
CRCPLEN0                          00000000
CRCPLEN1                          00000001
CRCPLEN2                          00000002
CRCPLEN3                          00000003
CRCSHIFT                          00000795
CRCSHIFT0                         00000000
CRCSHIFT1                         00000001
CRCSHIFT10                        00000002
CRCSHIFT11                        00000003
CRCSHIFT12                        00000004
CRCSHIFT13                        00000005
CRCSHIFT14                        00000006
CRCSHIFT15                        00000007
CRCSHIFT2                         00000002
CRCSHIFT3                         00000003
CRCSHIFT4                         00000004
CRCSHIFT5                         00000005
CRCSHIFT6                         00000006
CRCSHIFT7                         00000007
CRCSHIFT8                         00000000
CRCSHIFT9                         00000001
CRCSHIFTH                         00000796
CRCSHIFTL                         00000795
CRCSHIFTM                         00000001
CRCXOR                            00000797
CRCXOR1                           00000001
CRCXOR10                          00000002
CRCXOR11                          00000003
CRCXOR12                          00000004
CRCXOR13                          00000005
CRCXOR14                          00000006
CRCXOR15                          00000007
CRCXOR2                           00000002
CRCXOR3                           00000003
CRCXOR4                           00000004
CRCXOR5                           00000005
CRCXOR6                           00000006
CRCXOR7                           00000007
CRCXOR8                           00000000
CRCXOR9                           00000001
MPASM 5.77               COLORIZE_ANALOG.ASM   7-21-2018  21:33:50         PAGE 39


SYMBOL TABLE
  LABEL                             VALUE 

CRCXORH                           00000798
CRCXORL                           00000797
CRDCDAT7                          00000007
CREN                              00000004
CS                                00000000
CS0                               00000000
CS1                               00000001
CS2                               00000002
CS3                               00000003
CSEL0                             00000000
CSEL1                             00000001
CSEL2                             00000002
CSRC                              00000007
CTS0                              00000000
CTS1                              00000001
CTS2                              00000002
CWG1AS0                           00000693
CWG1AS1                           00000694
CWG1C1AS                          00000001
CWG1C2AS                          00000002
CWG1CLKCON                        00000699
CWG1CON0                          00000696
CWG1CON1                          00000697
CWG1CS                            00000000
CWG1DBF                           00000692
CWG1DBF0                          00000000
CWG1DBF1                          00000001
CWG1DBF2                          00000002
CWG1DBF3                          00000003
CWG1DBF4                          00000004
CWG1DBF5                          00000005
CWG1DBR                           00000691
CWG1DBR0                          00000000
CWG1DBR1                          00000001
CWG1DBR2                          00000002
CWG1DBR3                          00000003
CWG1DBR4                          00000004
CWG1DBR5                          00000005
CWG1EN                            00000007
CWG1IN                            00000005
CWG1INAS                          00000000
CWG1IS0                           00000000
CWG1IS1                           00000001
CWG1IS2                           00000002
CWG1IS3                           00000003
CWG1ISM                           0000069A
CWG1LD                            00000006
CWG1LSAC0                         00000002
CWG1LSAC1                         00000003
CWG1LSBD0                         00000004
CWG1LSBD1                         00000005
CWG1MODE0                         00000000
CWG1MODE1                         00000001
MPASM 5.77               COLORIZE_ANALOG.ASM   7-21-2018  21:33:50         PAGE 40


SYMBOL TABLE
  LABEL                             VALUE 

CWG1MODE2                         00000002
CWG1OCON0                         00000695
CWG1OVRA                          00000004
CWG1OVRB                          00000005
CWG1OVRC                          00000006
CWG1OVRD                          00000007
CWG1POLA                          00000000
CWG1POLB                          00000001
CWG1POLC                          00000002
CWG1POLD                          00000003
CWG1REN                           00000006
CWG1SHUTDOWN                      00000007
CWG1STRA                          00000000
CWG1STRB                          00000001
CWG1STRC                          00000002
CWG1STRD                          00000003
CWG1TMR2AS                        00000004
CWG1TMR4AS                        00000005
CWG1TMR6AS                        00000006
CWGIE                             00000005
CWGIF                             00000005
CWGINPPS                          00000E17
CWGINPPS0                         00000000
CWGINPPS1                         00000001
CWGINPPS2                         00000002
CWGINPPS3                         00000003
CWGINPPS4                         00000004
C_SHAD                            00000000
D1N                               00000000
D1PSS0                            00000002
D1PSS1                            00000003
D1S0                              00000000
D1S1                              00000001
D1S2                              00000002
D1S3                              00000003
D1S4                              00000004
D1S5                              00000005
D1T                               00000001
D2N                               00000002
D2S0                              00000000
D2S1                              00000001
D2S2                              00000002
D2S3                              00000003
D2S4                              00000004
D2S5                              00000005
D2T                               00000003
D3N                               00000004
D3S0                              00000000
D3S1                              00000001
D3S2                              00000002
D3S3                              00000003
D3S4                              00000004
D3S5                              00000005
MPASM 5.77               COLORIZE_ANALOG.ASM   7-21-2018  21:33:50         PAGE 41


SYMBOL TABLE
  LABEL                             VALUE 

D3T                               00000005
D4N                               00000006
D4S0                              00000000
D4S1                              00000001
D4S2                              00000002
D4S3                              00000003
D4S4                              00000004
D4S5                              00000005
D4T                               00000007
DAC1CON0                          00000118
DAC1CON1                          00000119
DAC1EN                            00000007
DAC1OE                            00000005
DAC1R0                            00000000
DAC1R1                            00000001
DAC1R2                            00000002
DAC1R3                            00000003
DAC1R4                            00000004
DAC1R5                            00000005
DAC1R6                            00000006
DAC1R7                            00000007
DAT0                              00000000
DAT1                              00000001
DAT10                             00000002
DAT11                             00000003
DAT12                             00000004
DAT13                             00000005
DAT14                             00000006
DAT15                             00000007
DAT2                              00000002
DAT3                              00000003
DAT4                              00000004
DAT5                              00000005
DAT6                              00000006
DAT7                              00000007
DAT8                              00000000
DAT9                              00000001
DBF0                              00000000
DBF1                              00000001
DBF2                              00000002
DBF3                              00000003
DBF4                              00000004
DBF5                              00000005
DBR0                              00000000
DBR1                              00000001
DBR2                              00000002
DBR3                              00000003
DBR4                              00000004
DBR5                              00000005
DC                                00000001
DC0                               00000006
DC1                               00000007
DC2                               00000000
MPASM 5.77               COLORIZE_ANALOG.ASM   7-21-2018  21:33:50         PAGE 42


SYMBOL TABLE
  LABEL                             VALUE 

DC3                               00000001
DC4                               00000002
DC5                               00000003
DC6                               00000004
DC7                               00000005
DC8                               00000006
DC9                               00000007
DC_SHAD                           00000001
DEC16                             
DELTA_T                           0000002B
DHEN                              00000000
DLEN0                             00000004
DLEN1                             00000005
DLEN2                             00000006
DLEN3                             00000007
DO_RENDER                         000000FA
D_NOT_A                           00000005
EN                                00000007
END_TEST1                         00000073
END_TEST2                         00000092
END_TRGR_TEST                     000000F7
ERR0                              00000000
ERR1                              00000001
ERR10                             00000002
ERR11                             00000003
ERR12                             00000004
ERR13                             00000005
ERR14                             00000006
ERR15                             00000007
ERR2                              00000002
ERR3                              00000003
ERR4                              00000004
ERR5                              00000005
ERR6                              00000006
ERR7                              00000007
ERR8                              00000000
ERR9                              00000001
ERRH0                             00000000
ERRH1                             00000001
ERRH2                             00000002
ERRH3                             00000003
ERRH4                             00000004
ERRH5                             00000005
ERRH6                             00000006
ERRH7                             00000007
ERRL0                             00000000
ERRL1                             00000001
ERRL2                             00000002
ERRL3                             00000003
ERRL4                             00000004
ERRL5                             00000005
ERRL6                             00000006
ERRL7                             00000007
MPASM 5.77               COLORIZE_ANALOG.ASM   7-21-2018  21:33:50         PAGE 43


SYMBOL TABLE
  LABEL                             VALUE 

EXTERN_INITIAL                    00000000
EXTERN_INTERRUPT_SERV             0000004F
F                                 00000001
FBCC                              7
FERR                              00000002
FIRST_TRGR                        00000099
FMT                               00000004
FPSTM                             6
FRC                               5
FREE                              00000004
FSR0                              00000004
FSR0H                             00000005
FSR0H_SHAD                        00000FE9
FSR0L                             00000004
FSR0L_SHAD                        00000FE8
FSR1                              00000006
FSR1H                             00000007
FSR1H_SHAD                        00000FEB
FSR1L                             00000006
FSR1L_SHAD                        00000FEA
FULL                              00000000
FVRCON                            00000117
FVREN                             00000007
FVRRDY                            00000006
G1                                0000003B
G1EN                              00000007
G1POL                             00000000
G2                                0000003D
G2POL                             00000001
G3                                0000003F
G3POL                             00000002
G4                                00000041
G4D1N                             00000000
G4D1T                             00000001
G4D2N                             00000002
G4D2T                             00000003
G4D3N                             00000004
G4D3T                             00000005
G4D4N                             00000006
G4D4T                             00000007
G4POL                             00000003
GCEN                              00000007
GIE                               00000007
GO                                00000001
GO_NOT_DONE                       00000001
GS1                               00000039
GS2                               0000003A
G_1                               00000110
G_12                              00000115
G_23                              00000151
G_34                              0000016A
G_4                               000001AB
HADR0                             00000000
MPASM 5.77               COLORIZE_ANALOG.ASM   7-21-2018  21:33:50         PAGE 44


SYMBOL TABLE
  LABEL                             VALUE 

HADR1                             00000001
HADR10                            00000002
HADR11                            00000003
HADR12                            00000004
HADR13                            00000005
HADR14                            00000006
HADR15                            00000007
HADR3                             00000003
HADR4                             00000004
HADR5                             00000005
HADR6                             00000006
HADR7                             00000007
HADR8                             00000000
HADR9                             00000001
HARD2                             00000002
HFIOFL                            00000003
HFIOFR                            00000004
HFIOFS                            00000000
HIDC4                             00000004
HIDC5                             00000005
HIDRVC                            0000040E
IN                                00000005
IN0                               00000000
IN1                               00000001
IN10                              00000002
IN11                              00000003
IN12                              00000004
IN13                              00000005
IN14                              00000006
IN15                              00000007
IN2                               00000002
IN3                               00000003
IN4                               00000004
IN5                               00000005
IN6                               00000006
IN7                               00000007
IN8                               00000000
IN9                               00000001
INAS                              00000000
INC16                             
INDF0                             00000000
INDF1                             00000001
INIT16                            
INLVLA                            0000038C
INLVLA0                           00000000
INLVLA1                           00000001
INLVLA2                           00000002
INLVLA3                           00000003
INLVLA4                           00000004
INLVLA5                           00000005
INLVLC                            0000038E
INLVLC0                           00000000
INLVLC1                           00000001
MPASM 5.77               COLORIZE_ANALOG.ASM   7-21-2018  21:33:50         PAGE 45


SYMBOL TABLE
  LABEL                             VALUE 

INLVLC2                           00000002
INLVLC3                           00000003
INLVLC4                           00000004
INLVLC5                           00000005
INTCON                            0000000B
INTE                              00000004
INTEDG                            00000006
INTF                              00000001
INTM                              00000003
INTN                              00000003
INTP                              00000004
INTPPS                            00000E10
INTPPS0                           00000000
INTPPS1                           00000001
INTPPS2                           00000002
INTPPS3                           00000003
INTPPS4                           00000004
INVALID                           00000004
IOCAF                             00000393
IOCAF0                            00000000
IOCAF1                            00000001
IOCAF2                            00000002
IOCAF3                            00000003
IOCAF4                            00000004
IOCAF5                            00000005
IOCAN                             00000392
IOCAN0                            00000000
IOCAN1                            00000001
IOCAN2                            00000002
IOCAN3                            00000003
IOCAN4                            00000004
IOCAN5                            00000005
IOCAP                             00000391
IOCAP0                            00000000
IOCAP1                            00000001
IOCAP2                            00000002
IOCAP3                            00000003
IOCAP4                            00000004
IOCAP5                            00000005
IOCCF                             00000399
IOCCF0                            00000000
IOCCF1                            00000001
IOCCF2                            00000002
IOCCF3                            00000003
IOCCF4                            00000004
IOCCF5                            00000005
IOCCF6                            00000006
IOCCF7                            00000007
IOCCN                             00000398
IOCCN0                            00000000
IOCCN1                            00000001
IOCCN2                            00000002
IOCCN3                            00000003
MPASM 5.77               COLORIZE_ANALOG.ASM   7-21-2018  21:33:50         PAGE 46


SYMBOL TABLE
  LABEL                             VALUE 

IOCCN4                            00000004
IOCCN5                            00000005
IOCCN6                            00000006
IOCCN7                            00000007
IOCCP                             00000397
IOCCP0                            00000000
IOCCP1                            00000001
IOCCP2                            00000002
IOCCP3                            00000003
IOCCP4                            00000004
IOCCP5                            00000005
IOCCP6                            00000006
IOCCP7                            00000007
IOCIE                             00000003
IOCIF                             00000000
IRCF0                             00000003
IRCF1                             00000004
IRCF2                             00000005
IRCF3                             00000006
IS0                               00000000
IS1                               00000001
IS2                               00000002
IS3                               00000003
K10                               00000000
K11                               00000001
K110                              00000002
K111                              00000003
K112                              00000004
K113                              00000005
K114                              00000006
K115                              00000007
K12                               00000002
K13                               00000003
K14                               00000004
K15                               00000005
K16                               00000006
K17                               00000007
K18                               00000000
K19                               00000001
K20                               00000000
K21                               00000001
K210                              00000002
K211                              00000003
K212                              00000004
K213                              00000005
K214                              00000006
K215                              00000007
K22                               00000002
K23                               00000003
K24                               00000004
K25                               00000005
K26                               00000006
K27                               00000007
MPASM 5.77               COLORIZE_ANALOG.ASM   7-21-2018  21:33:50         PAGE 47


SYMBOL TABLE
  LABEL                             VALUE 

K28                               00000000
K29                               00000001
K30                               00000000
K31                               00000001
K310                              00000002
K311                              00000003
K312                              00000004
K313                              00000005
K314                              00000006
K315                              00000007
K32                               00000002
K33                               00000003
K34                               00000004
K35                               00000005
K36                               00000006
K37                               00000007
K38                               00000000
K39                               00000001
LADR10                            00000002
LADR11                            00000003
LADR12                            00000004
LADR13                            00000005
LADR14                            00000006
LADR15                            00000007
LADR2                             00000002
LADR3                             00000003
LADR4                             00000004
LADR5                             00000005
LADR6                             00000006
LADR7                             00000007
LADR8                             00000000
LADR9                             00000001
LATA                              0000010C
LATA0                             00000000
LATA1                             00000001
LATA2                             00000002
LATA3                             00000003
LATA4                             00000004
LATA5                             00000005
LATC                              0000010E
LATC0                             00000000
LATC1                             00000001
LATC2                             00000002
LATC3                             00000003
LATC4                             00000004
LATC5                             00000005
LC1D1S0                           00000000
LC1D1S1                           00000001
LC1D1S2                           00000002
LC1D1S3                           00000003
LC1D1S4                           00000004
LC1D1S5                           00000005
LC1D2S0                           00000000
MPASM 5.77               COLORIZE_ANALOG.ASM   7-21-2018  21:33:50         PAGE 48


SYMBOL TABLE
  LABEL                             VALUE 

LC1D2S1                           00000001
LC1D2S2                           00000002
LC1D2S3                           00000003
LC1D2S4                           00000004
LC1D2S5                           00000005
LC1D3S0                           00000000
LC1D3S1                           00000001
LC1D3S2                           00000002
LC1D3S3                           00000003
LC1D3S4                           00000004
LC1D3S5                           00000005
LC1D4S0                           00000000
LC1D4S1                           00000001
LC1D4S2                           00000002
LC1D4S3                           00000003
LC1D4S4                           00000004
LC1D4S5                           00000005
LC1EN                             00000007
LC1G1D1N                          00000000
LC1G1D1T                          00000001
LC1G1D2N                          00000002
LC1G1D2T                          00000003
LC1G1D3N                          00000004
LC1G1D3T                          00000005
LC1G1D4N                          00000006
LC1G1D4T                          00000007
LC1G1POL                          00000000
LC1G2D1N                          00000000
LC1G2D1T                          00000001
LC1G2D2N                          00000002
LC1G2D2T                          00000003
LC1G2D3N                          00000004
LC1G2D3T                          00000005
LC1G2D4N                          00000006
LC1G2D4T                          00000007
LC1G2POL                          00000001
LC1G3D1N                          00000000
LC1G3D1T                          00000001
LC1G3D2N                          00000002
LC1G3D2T                          00000003
LC1G3D3N                          00000004
LC1G3D3T                          00000005
LC1G3D4N                          00000006
LC1G3D4T                          00000007
LC1G3POL                          00000002
LC1G4D1N                          00000000
LC1G4D1T                          00000001
LC1G4D2N                          00000002
LC1G4D2T                          00000003
LC1G4D3N                          00000004
LC1G4D3T                          00000005
LC1G4D4N                          00000006
LC1G4D4T                          00000007
MPASM 5.77               COLORIZE_ANALOG.ASM   7-21-2018  21:33:50         PAGE 49


SYMBOL TABLE
  LABEL                             VALUE 

LC1G4POL                          00000003
LC1INTN                           00000003
LC1INTP                           00000004
LC1MODE0                          00000000
LC1MODE1                          00000001
LC1MODE2                          00000002
LC1OUT                            00000005
LC1POL                            00000007
LC2D1S0                           00000000
LC2D1S1                           00000001
LC2D1S2                           00000002
LC2D1S3                           00000003
LC2D1S4                           00000004
LC2D1S5                           00000005
LC2D2S0                           00000000
LC2D2S1                           00000001
LC2D2S2                           00000002
LC2D2S3                           00000003
LC2D2S4                           00000004
LC2D2S5                           00000005
LC2D3S0                           00000000
LC2D3S1                           00000001
LC2D3S2                           00000002
LC2D3S3                           00000003
LC2D3S4                           00000004
LC2D3S5                           00000005
LC2D4S0                           00000000
LC2D4S1                           00000001
LC2D4S2                           00000002
LC2D4S3                           00000003
LC2D4S4                           00000004
LC2D4S5                           00000005
LC2EN                             00000007
LC2G1D1N                          00000000
LC2G1D1T                          00000001
LC2G1D2N                          00000002
LC2G1D2T                          00000003
LC2G1D3N                          00000004
LC2G1D3T                          00000005
LC2G1D4N                          00000006
LC2G1D4T                          00000007
LC2G1POL                          00000000
LC2G2D1N                          00000000
LC2G2D1T                          00000001
LC2G2D2N                          00000002
LC2G2D2T                          00000003
LC2G2D3N                          00000004
LC2G2D3T                          00000005
LC2G2D4N                          00000006
LC2G2D4T                          00000007
LC2G2POL                          00000001
LC2G3D1N                          00000000
LC2G3D1T                          00000001
MPASM 5.77               COLORIZE_ANALOG.ASM   7-21-2018  21:33:50         PAGE 50


SYMBOL TABLE
  LABEL                             VALUE 

LC2G3D2N                          00000002
LC2G3D2T                          00000003
LC2G3D3N                          00000004
LC2G3D3T                          00000005
LC2G3D4N                          00000006
LC2G3D4T                          00000007
LC2G3POL                          00000002
LC2G4D1N                          00000000
LC2G4D1T                          00000001
LC2G4D2N                          00000002
LC2G4D2T                          00000003
LC2G4D3N                          00000004
LC2G4D3T                          00000005
LC2G4D4N                          00000006
LC2G4D4T                          00000007
LC2G4POL                          00000003
LC2INTN                           00000003
LC2INTP                           00000004
LC2MODE0                          00000000
LC2MODE1                          00000001
LC2MODE2                          00000002
LC2OUT                            00000005
LC2POL                            00000007
LC3D1S0                           00000000
LC3D1S1                           00000001
LC3D1S2                           00000002
LC3D1S3                           00000003
LC3D1S4                           00000004
LC3D1S5                           00000005
LC3D2S0                           00000000
LC3D2S1                           00000001
LC3D2S2                           00000002
LC3D2S3                           00000003
LC3D2S4                           00000004
LC3D2S5                           00000005
LC3D3S0                           00000000
LC3D3S1                           00000001
LC3D3S2                           00000002
LC3D3S3                           00000003
LC3D3S4                           00000004
LC3D3S5                           00000005
LC3D4S0                           00000000
LC3D4S1                           00000001
LC3D4S2                           00000002
LC3D4S3                           00000003
LC3D4S4                           00000004
LC3D4S5                           00000005
LC3EN                             00000007
LC3G1D1N                          00000000
LC3G1D1T                          00000001
LC3G1D2N                          00000002
LC3G1D2T                          00000003
LC3G1D3N                          00000004
MPASM 5.77               COLORIZE_ANALOG.ASM   7-21-2018  21:33:50         PAGE 51


SYMBOL TABLE
  LABEL                             VALUE 

LC3G1D3T                          00000005
LC3G1D4N                          00000006
LC3G1D4T                          00000007
LC3G1POL                          00000000
LC3G2D1N                          00000000
LC3G2D1T                          00000001
LC3G2D2N                          00000002
LC3G2D2T                          00000003
LC3G2D3N                          00000004
LC3G2D3T                          00000005
LC3G2D4N                          00000006
LC3G2D4T                          00000007
LC3G2POL                          00000001
LC3G3D1N                          00000000
LC3G3D1T                          00000001
LC3G3D2N                          00000002
LC3G3D2T                          00000003
LC3G3D3N                          00000004
LC3G3D3T                          00000005
LC3G3D4N                          00000006
LC3G3D4T                          00000007
LC3G3POL                          00000002
LC3G4D1N                          00000000
LC3G4D1T                          00000001
LC3G4D2N                          00000002
LC3G4D2T                          00000003
LC3G4D3N                          00000004
LC3G4D3T                          00000005
LC3G4D4N                          00000006
LC3G4D4T                          00000007
LC3G4POL                          00000003
LC3INTN                           00000003
LC3INTP                           00000004
LC3MODE0                          00000000
LC3MODE1                          00000001
LC3MODE2                          00000002
LC3OUT                            00000005
LC3POL                            00000007
LC4D1S0                           00000000
LC4D1S1                           00000001
LC4D1S2                           00000002
LC4D1S3                           00000003
LC4D1S4                           00000004
LC4D1S5                           00000005
LC4D2S0                           00000000
LC4D2S1                           00000001
LC4D2S2                           00000002
LC4D2S3                           00000003
LC4D2S4                           00000004
LC4D2S5                           00000005
LC4D3S0                           00000000
LC4D3S1                           00000001
LC4D3S2                           00000002
MPASM 5.77               COLORIZE_ANALOG.ASM   7-21-2018  21:33:50         PAGE 52


SYMBOL TABLE
  LABEL                             VALUE 

LC4D3S3                           00000003
LC4D3S4                           00000004
LC4D3S5                           00000005
LC4D4S0                           00000000
LC4D4S1                           00000001
LC4D4S2                           00000002
LC4D4S3                           00000003
LC4D4S4                           00000004
LC4D4S5                           00000005
LC4EN                             00000007
LC4G1D1N                          00000000
LC4G1D1T                          00000001
LC4G1D2N                          00000002
LC4G1D2T                          00000003
LC4G1D3N                          00000004
LC4G1D3T                          00000005
LC4G1D4N                          00000006
LC4G1D4T                          00000007
LC4G1POL                          00000000
LC4G2D1N                          00000000
LC4G2D1T                          00000001
LC4G2D2N                          00000002
LC4G2D2T                          00000003
LC4G2D3N                          00000004
LC4G2D3T                          00000005
LC4G2D4N                          00000006
LC4G2D4T                          00000007
LC4G2POL                          00000001
LC4G3D1N                          00000000
LC4G3D1T                          00000001
LC4G3D2N                          00000002
LC4G3D2T                          00000003
LC4G3D3N                          00000004
LC4G3D3T                          00000005
LC4G3D4N                          00000006
LC4G3D4T                          00000007
LC4G3POL                          00000002
LC4G4D1N                          00000000
LC4G4D1T                          00000001
LC4G4D2N                          00000002
LC4G4D2T                          00000003
LC4G4D3N                          00000004
LC4G4D3T                          00000005
LC4G4D4N                          00000006
LC4G4D4T                          00000007
LC4G4POL                          00000003
LC4INTN                           00000003
LC4INTP                           00000004
LC4MODE0                          00000000
LC4MODE1                          00000001
LC4MODE2                          00000002
LC4OUT                            00000005
LC4POL                            00000007
MPASM 5.77               COLORIZE_ANALOG.ASM   7-21-2018  21:33:50         PAGE 53


SYMBOL TABLE
  LABEL                             VALUE 

LD                                00000006
LDAR0                             00000000
LDAR1                             00000001
LFIOFR                            00000001
LSAC0                             00000002
LSAC1                             00000003
LSBD0                             00000004
LSBD1                             00000005
LSF16                             
LSHIFT16                          00000000
LSL16                             
LSR16                             
LWLO                              00000005
MAX_WAV                           00000029
MC1OUT                            00000000
MC2OUT                            00000001
MFIOFR                            00000002
MIN_WAV                           00000027
MISS0                             00000000
MISS1                             00000001
MISS10                            00000002
MISS11                            00000003
MISS12                            00000004
MISS13                            00000005
MISS14                            00000006
MISS15                            00000007
MISS2                             00000002
MISS3                             00000003
MISS4                             00000004
MISS5                             00000005
MISS6                             00000006
MISS7                             00000007
MISS8                             00000000
MISS9                             00000001
MLC1OUT                           00000000
MLC2OUT                           00000001
MLC3OUT                           00000002
MLC4OUT                           00000003
MODE                              00000000
MODE0                             00000000
MODE1                             00000001
MODE2                             00000002
MODE3                             00000003
MODE4                             00000004
MOV16                             
MOVLF                             
MPP                               00000002
MSK0                              00000000
MSK1                              00000001
MSK2                              00000002
MSK3                              00000003
MSK4                              00000004
MSK5                              00000005
MPASM 5.77               COLORIZE_ANALOG.ASM   7-21-2018  21:33:50         PAGE 54


SYMBOL TABLE
  LABEL                             VALUE 

MSK6                              00000006
MSK7                              00000007
NEG16                             
NOT_BOR                           00000000
NOT_PD                            00000003
NOT_POR                           00000001
NOT_RI                            00000002
NOT_RMCLR                         00000003
NOT_RWDT                          00000004
NOT_T1SYNC                        00000002
NOT_TO                            00000004
NOT_WDTWV                         00000005
NOT_WPUEN                         00000007
NUM_LEDS                          60
ODA0                              00000000
ODA1                              00000001
ODA2                              00000002
ODA4                              00000004
ODA5                              00000005
ODC0                              00000000
ODC1                              00000001
ODC2                              00000002
ODC3                              00000003
ODC4                              00000004
ODC5                              00000005
ODCONA                            0000028C
ODCONC                            0000028E
OERR                              00000001
ON                                00000007
OPTION_REG                        00000095
OSCCON                            00000099
OSCFIE                            00000007
OSCSTAT                           0000009A
OSCTUNE                           00000098
OSFIF                             00000007
OSTS                              00000005
OUT                               00000005
OUT0                              00000000
OUT1                              00000001
OUT10                             00000002
OUT11                             00000003
OUT12                             00000004
OUT13                             00000005
OUT14                             00000006
OUT15                             00000007
OUT16                             00000000
OUT17                             00000001
OUT18                             00000002
OUT19                             00000003
OUT2                              00000002
OUT20                             00000004
OUT21                             00000005
OUT22                             00000006
MPASM 5.77               COLORIZE_ANALOG.ASM   7-21-2018  21:33:50         PAGE 55


SYMBOL TABLE
  LABEL                             VALUE 

OUT23                             00000007
OUT24                             00000000
OUT25                             00000001
OUT26                             00000002
OUT27                             00000003
OUT28                             00000004
OUT29                             00000005
OUT3                              00000003
OUT30                             00000006
OUT31                             00000007
OUT32                             00000000
OUT33                             00000001
OUT34                             00000002
OUT35                             00000003
OUT4                              00000004
OUT5                              00000005
OUT6                              00000006
OUT7                              00000007
OUT8                              00000000
OUT9                              00000001
OUTPS0                            00000000
OUTPS1                            00000001
OUTPS2                            00000002
OUTPS3                            00000003
OVRA                              00000004
OVRB                              00000005
OVRC                              00000006
OVRD                              00000007
P                                 00000004
P3TSEL0                           00000004
P3TSEL1                           00000005
P4TSEL0                           00000006
P4TSEL1                           00000007
PCIE                              00000006
PCL                               00000002
PCLATH                            0000000A
PCLATH_SHAD                       00000FE7
PCON                              00000096
PEIE                              00000006
PEN                               00000002
PER0                              00000000
PER1                              00000001
PER10                             00000002
PER11                             00000003
PER12                             00000004
PER13                             00000005
PER14                             00000006
PER15                             00000007
PER2                              00000002
PER3                              00000003
PER4                              00000004
PER5                              00000005
PER6                              00000006
MPASM 5.77               COLORIZE_ANALOG.ASM   7-21-2018  21:33:50         PAGE 56


SYMBOL TABLE
  LABEL                             VALUE 

PER7                              00000007
PER8                              00000000
PER9                              00000001
PERH0                             00000000
PERH1                             00000001
PERH2                             00000002
PERH3                             00000003
PERH4                             00000004
PERH5                             00000005
PERH6                             00000006
PERH7                             00000007
PERL0                             00000000
PERL1                             00000001
PERL2                             00000002
PERL3                             00000003
PERL4                             00000004
PERL5                             00000005
PERL6                             00000006
PERL7                             00000007
PHP                               00000006
PHS0                              00000000
PHS1                              00000001
PHS2                              00000002
PHS3                              00000003
PHS4                              00000004
PHS5                              00000005
PHS6                              00000006
PHS7                              00000007
PHS8                              00000000
PHS9                              00000001
PHSL8                             00000000
PHSL9                             00000001
PID1ACC                           0000060F
PID1ACC0                          00000000
PID1ACC1                          00000001
PID1ACC10                         00000002
PID1ACC11                         00000003
PID1ACC12                         00000004
PID1ACC13                         00000005
PID1ACC14                         00000006
PID1ACC15                         00000007
PID1ACC16                         00000000
PID1ACC17                         00000001
PID1ACC18                         00000002
PID1ACC19                         00000003
PID1ACC2                          00000002
PID1ACC20                         00000004
PID1ACC21                         00000005
PID1ACC22                         00000006
PID1ACC23                         00000007
PID1ACC24                         00000000
PID1ACC25                         00000001
PID1ACC26                         00000002
MPASM 5.77               COLORIZE_ANALOG.ASM   7-21-2018  21:33:50         PAGE 57


SYMBOL TABLE
  LABEL                             VALUE 

PID1ACC27                         00000003
PID1ACC28                         00000004
PID1ACC29                         00000005
PID1ACC3                          00000003
PID1ACC30                         00000006
PID1ACC31                         00000007
PID1ACC32                         00000000
PID1ACC33                         00000001
PID1ACC34                         00000002
PID1ACC4                          00000004
PID1ACC5                          00000005
PID1ACC6                          00000006
PID1ACC7                          00000007
PID1ACC8                          00000000
PID1ACC9                          00000001
PID1ACCHH                         00000612
PID1ACCHL                         00000611
PID1ACCLH                         00000610
PID1ACCLL                         0000060F
PID1ACCU                          00000613
PID1BUSY                          00000006
PID1CON                           00000614
PID1DIE                           00000000
PID1DIF                           00000000
PID1EIE                           00000001
PID1EIF                           00000001
PID1EN                            00000007
PID1IN                            0000058E
PID1IN0                           00000000
PID1IN1                           00000001
PID1IN10                          00000002
PID1IN11                          00000003
PID1IN12                          00000004
PID1IN13                          00000005
PID1IN14                          00000006
PID1IN15                          00000007
PID1IN2                           00000002
PID1IN3                           00000003
PID1IN4                           00000004
PID1IN5                           00000005
PID1IN6                           00000006
PID1IN7                           00000007
PID1IN8                           00000000
PID1IN9                           00000001
PID1INH                           0000058F
PID1INL                           0000058E
PID1K1                            00000590
PID1K10                           00000000
PID1K11                           00000001
PID1K110                          00000002
PID1K111                          00000003
PID1K112                          00000004
PID1K113                          00000005
MPASM 5.77               COLORIZE_ANALOG.ASM   7-21-2018  21:33:50         PAGE 58


SYMBOL TABLE
  LABEL                             VALUE 

PID1K114                          00000006
PID1K115                          00000007
PID1K12                           00000002
PID1K13                           00000003
PID1K14                           00000004
PID1K15                           00000005
PID1K16                           00000006
PID1K17                           00000007
PID1K18                           00000000
PID1K19                           00000001
PID1K1H                           00000591
PID1K1L                           00000590
PID1K2                            00000592
PID1K20                           00000000
PID1K21                           00000001
PID1K210                          00000002
PID1K211                          00000003
PID1K212                          00000004
PID1K213                          00000005
PID1K214                          00000006
PID1K215                          00000007
PID1K22                           00000002
PID1K23                           00000003
PID1K24                           00000004
PID1K25                           00000005
PID1K26                           00000006
PID1K27                           00000007
PID1K28                           00000000
PID1K29                           00000001
PID1K2H                           00000593
PID1K2L                           00000592
PID1K3                            00000594
PID1K30                           00000000
PID1K31                           00000001
PID1K310                          00000002
PID1K311                          00000003
PID1K312                          00000004
PID1K313                          00000005
PID1K314                          00000006
PID1K315                          00000007
PID1K32                           00000002
PID1K33                           00000003
PID1K34                           00000004
PID1K35                           00000005
PID1K36                           00000006
PID1K37                           00000007
PID1K38                           00000000
PID1K39                           00000001
PID1K3H                           00000595
PID1K3L                           00000594
PID1MODE0                         00000000
PID1MODE1                         00000001
PID1MODE2                         00000002
MPASM 5.77               COLORIZE_ANALOG.ASM   7-21-2018  21:33:50         PAGE 59


SYMBOL TABLE
  LABEL                             VALUE 

PID1OUT                           00000596
PID1OUT0                          00000000
PID1OUT1                          00000001
PID1OUT10                         00000002
PID1OUT11                         00000003
PID1OUT12                         00000004
PID1OUT13                         00000005
PID1OUT14                         00000006
PID1OUT15                         00000007
PID1OUT16                         00000000
PID1OUT17                         00000001
PID1OUT18                         00000002
PID1OUT19                         00000003
PID1OUT2                          00000002
PID1OUT20                         00000004
PID1OUT21                         00000005
PID1OUT22                         00000006
PID1OUT23                         00000007
PID1OUT24                         00000000
PID1OUT25                         00000001
PID1OUT26                         00000002
PID1OUT27                         00000003
PID1OUT28                         00000004
PID1OUT29                         00000005
PID1OUT3                          00000003
PID1OUT30                         00000006
PID1OUT31                         00000007
PID1OUT32                         00000000
PID1OUT33                         00000001
PID1OUT34                         00000002
PID1OUT35                         00000003
PID1OUT4                          00000004
PID1OUT5                          00000005
PID1OUT6                          00000006
PID1OUT7                          00000007
PID1OUT8                          00000000
PID1OUT9                          00000001
PID1OUTHH                         00000599
PID1OUTHL                         00000598
PID1OUTLH                         00000597
PID1OUTLL                         00000596
PID1OUTU                          0000059A
PID1SET                           0000058C
PID1SET0                          00000000
PID1SET1                          00000001
PID1SET10                         00000002
PID1SET11                         00000003
PID1SET12                         00000004
PID1SET13                         00000005
PID1SET14                         00000006
PID1SET15                         00000007
PID1SET2                          00000002
PID1SET3                          00000003
MPASM 5.77               COLORIZE_ANALOG.ASM   7-21-2018  21:33:50         PAGE 60


SYMBOL TABLE
  LABEL                             VALUE 

PID1SET4                          00000004
PID1SET5                          00000005
PID1SET6                          00000006
PID1SET7                          00000007
PID1SET8                          00000000
PID1SET9                          00000001
PID1SETH                          0000058D
PID1SETL                          0000058C
PID1Z1                            0000059B
PID1Z10                           00000000
PID1Z11                           00000001
PID1Z110                          00000002
PID1Z111                          00000003
PID1Z112                          00000004
PID1Z113                          00000005
PID1Z114                          00000006
PID1Z115                          00000007
PID1Z116                          00000000
PID1Z12                           00000002
PID1Z13                           00000003
PID1Z14                           00000004
PID1Z15                           00000005
PID1Z16                           00000006
PID1Z17                           00000007
PID1Z18                           00000000
PID1Z19                           00000001
PID1Z1H                           0000059C
PID1Z1L                           0000059B
PID1Z1U                           0000059D
PID1Z2                            0000060C
PID1Z20                           00000000
PID1Z21                           00000001
PID1Z210                          00000002
PID1Z211                          00000003
PID1Z212                          00000004
PID1Z213                          00000005
PID1Z214                          00000006
PID1Z215                          00000007
PID1Z216                          00000000
PID1Z22                           00000002
PID1Z23                           00000003
PID1Z24                           00000004
PID1Z25                           00000005
PID1Z26                           00000006
PID1Z27                           00000007
PID1Z28                           00000000
PID1Z29                           00000001
PID1Z2H                           0000060D
PID1Z2L                           0000060C
PID1Z2U                           0000060E
PIE1                              00000090
PIE2                              00000091
PIE3                              00000092
MPASM 5.77               COLORIZE_ANALOG.ASM   7-21-2018  21:33:50         PAGE 61


SYMBOL TABLE
  LABEL                             VALUE 

PIE4                              00000093
PIE5                              00000094
PIR1                              00000010
PIR2                              00000011
PIR3                              00000012
PIR4                              00000013
PIR5                              00000014
PLEN0                             00000000
PLEN1                             00000001
PLEN2                             00000002
PLEN3                             00000003
PLLR                              00000006
PMADR                             00000191
PMADRH                            00000192
PMADRL                            00000191
PMCON1                            00000195
PMCON2                            00000196
PMDAT                             00000193
PMDATH                            00000194
PMDATL                            00000193
POLA                              00000000
POLB                              00000001
POLC                              00000002
POLD                              00000003
POL_AT1CON0                       00000003
POL_CLC1POL                       00000007
POL_CLC2POL                       00000007
POL_CLC3POL                       00000007
POL_CLC4POL                       00000007
POL_PWM3CON                       00000004
POL_PWM4CON                       00000004
PORTA                             0000000C
PORTC                             0000000E
PPSLOCK                           00000E0F
PPSLOCKED                         00000000
PR2                               0000001B
PR4                               00000414
PR6                               0000041B
PREC                              00000006
PRP                               00000004
PS0_AT1CON0                       00000004
PS0_OPTION_REG                    00000000
PS1_AT1CON0                       00000005
PS1_OPTION_REG                    00000001
PS2                               00000002
PSA                               00000003
PSCNT0                            00000000
PSCNT1                            00000001
PSCNT10                           00000002
PSCNT11                           00000003
PSCNT12                           00000004
PSCNT13                           00000005
PSCNT14                           00000006
MPASM 5.77               COLORIZE_ANALOG.ASM   7-21-2018  21:33:50         PAGE 62


SYMBOL TABLE
  LABEL                             VALUE 

PSCNT15                           00000007
PSCNT16                           00000000
PSCNT17                           00000001
PSCNT2                            00000002
PSCNT3                            00000003
PSCNT4                            00000004
PSCNT5                            00000005
PSCNT6                            00000006
PSCNT7                            00000007
PSCNT8                            00000000
PSCNT9                            00000001
PSYNC                             00000007
PWM3CON                           00000619
PWM3DC0                           00000006
PWM3DC1                           00000007
PWM3DC2                           00000000
PWM3DC3                           00000001
PWM3DC4                           00000002
PWM3DC5                           00000003
PWM3DC6                           00000004
PWM3DC7                           00000005
PWM3DC8                           00000006
PWM3DC9                           00000007
PWM3DCH                           00000618
PWM3DCL                           00000617
PWM3EN                            00000007
PWM3OUT                           00000005
PWM3POL                           00000004
PWM4CON                           0000061C
PWM4DC0                           00000006
PWM4DC1                           00000007
PWM4DC2                           00000000
PWM4DC3                           00000001
PWM4DC4                           00000002
PWM4DC5                           00000003
PWM4DC6                           00000004
PWM4DC7                           00000005
PWM4DC8                           00000006
PWM4DC9                           00000007
PWM4DCH                           0000061B
PWM4DCL                           0000061A
PWM4EN                            00000007
PWM4OUT                           00000005
PWM4POL                           00000004
PWMPW0                            00000006
PWMPW1                            00000007
PWMPW2                            00000000
PWMPW3                            00000001
PWMPW4                            00000002
PWMPW5                            00000003
PWMPW6                            00000004
PWMPW7                            00000005
PWMPW8                            00000006
MPASM 5.77               COLORIZE_ANALOG.ASM   7-21-2018  21:33:50         PAGE 63


SYMBOL TABLE
  LABEL                             VALUE 

PWMPW9                            00000007
R1                                00000033
R2                                00000035
R3                                00000037
RA0                               00000000
RA0PPS                            00000E90
RA0PPS0                           00000000
RA0PPS1                           00000001
RA0PPS2                           00000002
RA0PPS3                           00000003
RA0PPS4                           00000004
RA1                               00000001
RA1PPS                            00000E91
RA1PPS0                           00000000
RA1PPS1                           00000001
RA1PPS2                           00000002
RA1PPS3                           00000003
RA1PPS4                           00000004
RA2                               00000002
RA2PPS                            00000E92
RA2PPS0                           00000000
RA2PPS1                           00000001
RA2PPS2                           00000002
RA2PPS3                           00000003
RA2PPS4                           00000004
RA3                               00000003
RA4                               00000004
RA4PPS                            00000E94
RA4PPS0                           00000000
RA4PPS1                           00000001
RA4PPS2                           00000002
RA4PPS3                           00000003
RA4PPS4                           00000004
RA5                               00000005
RA5PPS                            00000E95
RA5PPS0                           00000000
RA5PPS1                           00000001
RA5PPS2                           00000002
RA5PPS3                           00000003
RA5PPS4                           00000004
RC0                               00000000
RC0PPS                            00000EA0
RC0PPS0                           00000000
RC0PPS1                           00000001
RC0PPS2                           00000002
RC0PPS3                           00000003
RC0PPS4                           00000004
RC1                               00000001
RC1PPS                            00000EA1
RC1PPS0                           00000000
RC1PPS1                           00000001
RC1PPS2                           00000002
RC1PPS3                           00000003
MPASM 5.77               COLORIZE_ANALOG.ASM   7-21-2018  21:33:50         PAGE 64


SYMBOL TABLE
  LABEL                             VALUE 

RC1PPS4                           00000004
RC1REG                            00000199
RC1STA                            0000019D
RC2                               00000002
RC2PPS                            00000EA2
RC2PPS0                           00000000
RC2PPS1                           00000001
RC2PPS2                           00000002
RC2PPS3                           00000003
RC2PPS4                           00000004
RC3                               00000003
RC3PPS                            00000EA3
RC3PPS0                           00000000
RC3PPS1                           00000001
RC3PPS2                           00000002
RC3PPS3                           00000003
RC3PPS4                           00000004
RC4                               00000004
RC4PPS                            00000EA4
RC4PPS0                           00000000
RC4PPS1                           00000001
RC4PPS2                           00000002
RC4PPS3                           00000003
RC4PPS4                           00000004
RC5                               00000005
RC5PPS                            00000EA5
RC5PPS0                           00000000
RC5PPS1                           00000001
RC5PPS2                           00000002
RC5PPS3                           00000003
RC5PPS4                           00000004
RCEN                              00000003
RCIDL                             00000006
RCIE                              00000005
RCIF                              00000005
RCREG                             00000199
RCREG1                            00000199
RCSTA                             0000019D
RCSTA1                            0000019D
RD                                00000000
REN                               00000006
REPEAT                            00000006
RES0                              00000000
RES1                              00000001
RES2                              00000002
RES3                              00000003
RES4                              00000004
RES5                              00000005
RES6                              00000006
RES7                              00000007
RES8                              00000000
RES9                              00000001
RS1                               00000031
MPASM 5.77               COLORIZE_ANALOG.ASM   7-21-2018  21:33:50         PAGE 65


SYMBOL TABLE
  LABEL                             VALUE 

RS2                               00000032
RSEL0                             00000000
RSEL1                             00000001
RSEL2                             00000002
RSEL3                             00000003
RSEN                              00000001
RSF16                             
RSHIFT16                          00000000
RST                               00000005
RX9                               00000006
RX9D                              00000000
RXPPS                             00000E24
RXPPS0                            00000000
RXPPS1                            00000001
RXPPS2                            00000002
RXPPS3                            00000003
RXPPS4                            00000004
R_1                               000001C4
R_12                              000001C9
R_23                              0000020A
R_3                               00000223
R_NOT_W                           00000002
S                                 00000003
SBCDE                             00000002
SBOREN                            00000007
SCANBUSY                          00000005
SCANCON0                          0000071C
SCANEN                            00000007
SCANGO                            00000006
SCANHADR                          0000071A
SCANHADR0                         00000000
SCANHADR1                         00000001
SCANHADR10                        00000002
SCANHADR11                        00000003
SCANHADR12                        00000004
SCANHADR13                        00000005
SCANHADR14                        00000006
SCANHADR15                        00000007
SCANHADR2                         00000002
SCANHADR3                         00000003
SCANHADR4                         00000004
SCANHADR5                         00000005
SCANHADR6                         00000006
SCANHADR7                         00000007
SCANHADR8                         00000000
SCANHADR9                         00000001
SCANHADRH                         0000071B
SCANHADRL                         0000071A
SCANIE                            00000007
SCANIF                            00000007
SCANINTM                          00000003
SCANINVALID                       00000004
SCANLADR                          00000718
MPASM 5.77               COLORIZE_ANALOG.ASM   7-21-2018  21:33:50         PAGE 66


SYMBOL TABLE
  LABEL                             VALUE 

SCANLADR0                         00000000
SCANLADR1                         00000001
SCANLADR10                        00000002
SCANLADR11                        00000003
SCANLADR12                        00000004
SCANLADR13                        00000005
SCANLADR14                        00000006
SCANLADR15                        00000007
SCANLADR2                         00000002
SCANLADR3                         00000003
SCANLADR4                         00000004
SCANLADR5                         00000005
SCANLADR6                         00000006
SCANLADR7                         00000007
SCANLADR8                         00000000
SCANLADR9                         00000001
SCANLADRH                         00000719
SCANLADRL                         00000718
SCANMODE0                         00000000
SCANMODE1                         00000001
SCANTRIG                          0000071D
SCANTSEL0                         00000000
SCANTSEL1                         00000001
SCANTSEL2                         00000002
SCANTSEL3                         00000003
SCIE                              00000005
SCKP                              00000004
SCS0                              00000000
SCS1                              00000001
SDAHT                             00000003
SECOND_TRGR                       000000C3
SEN                               00000000
SENDB                             00000003
SET0                              00000000
SET1                              00000001
SET10                             00000002
SET11                             00000003
SET12                             00000004
SET13                             00000005
SET14                             00000006
SET15                             00000007
SET2                              00000002
SET3                              00000003
SET4                              00000004
SET5                              00000005
SET6                              00000006
SET7                              00000007
SET8                              00000000
SET9                              00000001
SET_BLUE                          0000024C
SET_GREEN                         000000FB
SET_PEAK                          0000008A
SET_RED                           000001AF
MPASM 5.77               COLORIZE_ANALOG.ASM   7-21-2018  21:33:50         PAGE 67


SYMBOL TABLE
  LABEL                             VALUE 

SET_TROUGH                        0000006B
SET_WRGB                          000000FB
SHIFT0                            00000000
SHIFT1                            00000001
SHIFT10                           00000002
SHIFT11                           00000003
SHIFT12                           00000004
SHIFT13                           00000005
SHIFT14                           00000006
SHIFT15                           00000007
SHIFT2                            00000002
SHIFT3                            00000003
SHIFT4                            00000004
SHIFT5                            00000005
SHIFT6                            00000006
SHIFT7                            00000007
SHIFT8                            00000000
SHIFT9                            00000001
SHIFTM                            00000001
SHIFTNUM                          00000000
SHUTDOWN                          00000007
SLRA0                             00000000
SLRA1                             00000001
SLRA2                             00000002
SLRA4                             00000004
SLRA5                             00000005
SLRC0                             00000000
SLRC1                             00000001
SLRC2                             00000002
SLRC3                             00000003
SLRC4                             00000004
SLRC5                             00000005
SLRCONA                           0000030C
SLRCONC                           0000030E
SMP                               00000007
SMT1AS                            00000000
SMT1CLK                           00000D9B
SMT1CON0                          00000D98
SMT1CON1                          00000D99
SMT1CPR                           00000D8F
SMT1CPR0                          00000000
SMT1CPR1                          00000001
SMT1CPR10                         00000002
SMT1CPR11                         00000003
SMT1CPR12                         00000004
SMT1CPR13                         00000005
SMT1CPR14                         00000006
SMT1CPR15                         00000007
SMT1CPR16                         00000000
SMT1CPR17                         00000001
SMT1CPR18                         00000002
SMT1CPR19                         00000003
SMT1CPR2                          00000002
MPASM 5.77               COLORIZE_ANALOG.ASM   7-21-2018  21:33:50         PAGE 68


SYMBOL TABLE
  LABEL                             VALUE 

SMT1CPR20                         00000004
SMT1CPR21                         00000005
SMT1CPR22                         00000006
SMT1CPR23                         00000007
SMT1CPR3                          00000003
SMT1CPR4                          00000004
SMT1CPR5                          00000005
SMT1CPR6                          00000006
SMT1CPR7                          00000007
SMT1CPR8                          00000000
SMT1CPR9                          00000001
SMT1CPRH                          00000D90
SMT1CPRL                          00000D8F
SMT1CPRU                          00000D91
SMT1CPRUP                         00000007
SMT1CPW                           00000D92
SMT1CPW0                          00000000
SMT1CPW1                          00000001
SMT1CPW10                         00000002
SMT1CPW11                         00000003
SMT1CPW12                         00000004
SMT1CPW13                         00000005
SMT1CPW14                         00000006
SMT1CPW15                         00000007
SMT1CPW16                         00000000
SMT1CPW17                         00000001
SMT1CPW18                         00000002
SMT1CPW19                         00000003
SMT1CPW2                          00000002
SMT1CPW20                         00000004
SMT1CPW21                         00000005
SMT1CPW22                         00000006
SMT1CPW23                         00000007
SMT1CPW3                          00000003
SMT1CPW4                          00000004
SMT1CPW5                          00000005
SMT1CPW6                          00000006
SMT1CPW7                          00000007
SMT1CPW8                          00000000
SMT1CPW9                          00000001
SMT1CPWH                          00000D93
SMT1CPWL                          00000D92
SMT1CPWU                          00000D94
SMT1CPWUP                         00000006
SMT1CSEL0                         00000000
SMT1CSEL1                         00000001
SMT1CSEL2                         00000002
SMT1GO                            00000007
SMT1IE                            00000000
SMT1IF                            00000000
SMT1MODE0                         00000000
SMT1MODE1                         00000001
SMT1MODE2                         00000002
MPASM 5.77               COLORIZE_ANALOG.ASM   7-21-2018  21:33:50         PAGE 69


SYMBOL TABLE
  LABEL                             VALUE 

SMT1MODE3                         00000003
SMT1PR                            00000D95
SMT1PR0                           00000000
SMT1PR1                           00000001
SMT1PR10                          00000002
SMT1PR11                          00000003
SMT1PR12                          00000004
SMT1PR13                          00000005
SMT1PR14                          00000006
SMT1PR15                          00000007
SMT1PR16                          00000000
SMT1PR17                          00000001
SMT1PR18                          00000002
SMT1PR19                          00000003
SMT1PR2                           00000002
SMT1PR20                          00000004
SMT1PR21                          00000005
SMT1PR22                          00000006
SMT1PR23                          00000007
SMT1PR3                           00000003
SMT1PR4                           00000004
SMT1PR5                           00000005
SMT1PR6                           00000006
SMT1PR7                           00000007
SMT1PR8                           00000000
SMT1PR9                           00000001
SMT1PRAIE                         00000001
SMT1PRAIF                         00000001
SMT1PRH                           00000D96
SMT1PRL                           00000D95
SMT1PRU                           00000D97
SMT1PS0                           00000000
SMT1PS1                           00000001
SMT1PWAIE                         00000002
SMT1PWAIF                         00000002
SMT1REPEAT                        00000006
SMT1RESET                         00000005
SMT1SIG                           00000D9C
SMT1SIGPPS                        00000E26
SMT1SIGPPS0                       00000000
SMT1SIGPPS1                       00000001
SMT1SIGPPS2                       00000002
SMT1SIGPPS3                       00000003
SMT1SIGPPS4                       00000004
SMT1SSEL0                         00000000
SMT1SSEL1                         00000001
SMT1SSEL2                         00000002
SMT1SSEL3                         00000003
SMT1SSEL4                         00000004
SMT1STAT                          00000D9A
SMT1TMR                           00000D8C
SMT1TMR0                          00000000
SMT1TMR1                          00000001
MPASM 5.77               COLORIZE_ANALOG.ASM   7-21-2018  21:33:50         PAGE 70


SYMBOL TABLE
  LABEL                             VALUE 

SMT1TMR10                         00000002
SMT1TMR11                         00000003
SMT1TMR12                         00000004
SMT1TMR13                         00000005
SMT1TMR14                         00000006
SMT1TMR15                         00000007
SMT1TMR16                         00000000
SMT1TMR17                         00000001
SMT1TMR18                         00000002
SMT1TMR19                         00000003
SMT1TMR2                          00000002
SMT1TMR20                         00000004
SMT1TMR21                         00000005
SMT1TMR22                         00000006
SMT1TMR23                         00000007
SMT1TMR3                          00000003
SMT1TMR4                          00000004
SMT1TMR5                          00000005
SMT1TMR6                          00000006
SMT1TMR7                          00000007
SMT1TMR8                          00000000
SMT1TMR9                          00000001
SMT1TMRH                          00000D8D
SMT1TMRL                          00000D8C
SMT1TMRU                          00000D8E
SMT1TS                            00000002
SMT1WIN                           00000D9D
SMT1WINPPS                        00000E27
SMT1WS                            00000001
SMT1WSEL0                         00000000
SMT1WSEL1                         00000001
SMT1WSEL2                         00000002
SMT1WSEL3                         00000003
SMT1WSEL4                         00000004
SMT2AS                            00000000
SMT2CLK                           00000DAD
SMT2CON0                          00000DAA
SMT2CON1                          00000DAB
SMT2CPR                           00000DA1
SMT2CPR0                          00000000
SMT2CPR1                          00000001
SMT2CPR10                         00000002
SMT2CPR11                         00000003
SMT2CPR12                         00000004
SMT2CPR13                         00000005
SMT2CPR14                         00000006
SMT2CPR15                         00000007
SMT2CPR16                         00000000
SMT2CPR17                         00000001
SMT2CPR18                         00000002
SMT2CPR19                         00000003
SMT2CPR2                          00000002
SMT2CPR20                         00000004
MPASM 5.77               COLORIZE_ANALOG.ASM   7-21-2018  21:33:50         PAGE 71


SYMBOL TABLE
  LABEL                             VALUE 

SMT2CPR21                         00000005
SMT2CPR22                         00000006
SMT2CPR23                         00000007
SMT2CPR3                          00000003
SMT2CPR4                          00000004
SMT2CPR5                          00000005
SMT2CPR6                          00000006
SMT2CPR7                          00000007
SMT2CPR8                          00000000
SMT2CPR9                          00000001
SMT2CPRH                          00000DA2
SMT2CPRL                          00000DA1
SMT2CPRU                          00000DA3
SMT2CPRUP                         00000007
SMT2CPW                           00000DA4
SMT2CPW0                          00000000
SMT2CPW1                          00000001
SMT2CPW10                         00000002
SMT2CPW11                         00000003
SMT2CPW12                         00000004
SMT2CPW13                         00000005
SMT2CPW14                         00000006
SMT2CPW15                         00000007
SMT2CPW16                         00000000
SMT2CPW17                         00000001
SMT2CPW18                         00000002
SMT2CPW19                         00000003
SMT2CPW2                          00000002
SMT2CPW20                         00000004
SMT2CPW21                         00000005
SMT2CPW22                         00000006
SMT2CPW23                         00000007
SMT2CPW3                          00000003
SMT2CPW4                          00000004
SMT2CPW5                          00000005
SMT2CPW6                          00000006
SMT2CPW7                          00000007
SMT2CPW8                          00000000
SMT2CPW9                          00000001
SMT2CPWH                          00000DA5
SMT2CPWL                          00000DA4
SMT2CPWU                          00000DA6
SMT2CPWUP                         00000006
SMT2CSEL0                         00000000
SMT2CSEL1                         00000001
SMT2CSEL2                         00000002
SMT2GO                            00000007
SMT2IE                            00000003
SMT2IF                            00000003
SMT2MODE0                         00000000
SMT2MODE1                         00000001
SMT2MODE2                         00000002
SMT2MODE3                         00000003
MPASM 5.77               COLORIZE_ANALOG.ASM   7-21-2018  21:33:50         PAGE 72


SYMBOL TABLE
  LABEL                             VALUE 

SMT2PR                            00000DA7
SMT2PR0                           00000000
SMT2PR1                           00000001
SMT2PR10                          00000002
SMT2PR11                          00000003
SMT2PR12                          00000004
SMT2PR13                          00000005
SMT2PR14                          00000006
SMT2PR15                          00000007
SMT2PR16                          00000000
SMT2PR17                          00000001
SMT2PR18                          00000002
SMT2PR19                          00000003
SMT2PR2                           00000002
SMT2PR20                          00000004
SMT2PR21                          00000005
SMT2PR22                          00000006
SMT2PR23                          00000007
SMT2PR3                           00000003
SMT2PR4                           00000004
SMT2PR5                           00000005
SMT2PR6                           00000006
SMT2PR7                           00000007
SMT2PR8                           00000000
SMT2PR9                           00000001
SMT2PRAIE                         00000004
SMT2PRAIF                         00000004
SMT2PRH                           00000DA8
SMT2PRL                           00000DA7
SMT2PRU                           00000DA9
SMT2PS0                           00000000
SMT2PS1                           00000001
SMT2PWAIE                         00000005
SMT2PWAIF                         00000005
SMT2REPEAT                        00000006
SMT2RESET                         00000005
SMT2SIG                           00000DAE
SMT2SIGPPS                        00000E2C
SMT2SIGPPS0                       00000000
SMT2SIGPPS1                       00000001
SMT2SIGPPS2                       00000002
SMT2SIGPPS3                       00000003
SMT2SIGPPS4                       00000004
SMT2SSEL0                         00000000
SMT2SSEL1                         00000001
SMT2SSEL2                         00000002
SMT2SSEL3                         00000003
SMT2SSEL4                         00000004
SMT2STAT                          00000DAC
SMT2TMR                           00000D9E
SMT2TMR0                          00000000
SMT2TMR1                          00000001
SMT2TMR10                         00000002
MPASM 5.77               COLORIZE_ANALOG.ASM   7-21-2018  21:33:50         PAGE 73


SYMBOL TABLE
  LABEL                             VALUE 

SMT2TMR11                         00000003
SMT2TMR12                         00000004
SMT2TMR13                         00000005
SMT2TMR14                         00000006
SMT2TMR15                         00000007
SMT2TMR16                         00000000
SMT2TMR17                         00000001
SMT2TMR18                         00000002
SMT2TMR19                         00000003
SMT2TMR2                          00000002
SMT2TMR20                         00000004
SMT2TMR21                         00000005
SMT2TMR22                         00000006
SMT2TMR23                         00000007
SMT2TMR3                          00000003
SMT2TMR4                          00000004
SMT2TMR5                          00000005
SMT2TMR6                          00000006
SMT2TMR7                          00000007
SMT2TMR8                          00000000
SMT2TMR9                          00000001
SMT2TMRH                          00000D9F
SMT2TMRL                          00000D9E
SMT2TMRU                          00000DA0
SMT2TS                            00000002
SMT2WIN                           00000DAF
SMT2WINPPS                        00000E2D
SMT2WINPPS0                       00000000
SMT2WINPPS1                       00000001
SMT2WINPPS2                       00000002
SMT2WINPPS3                       00000003
SMT2WINPPS4                       00000004
SMT2WS                            00000001
SMT2WSEL0                         00000000
SMT2WSEL1                         00000001
SMT2WSEL2                         00000002
SMT2WSEL3                         00000003
SMT2WSEL4                         00000004
SMTWINPPS0                        00000000
SMTWINPPS1                        00000001
SMTWINPPS2                        00000002
SMTWINPPS3                        00000003
SMTWINPPS4                        00000004
SP1BRG                            0000019B
SP1BRGH                           0000019C
SP1BRGL                           0000019B
SPBRG                             0000019B
SPBRG1                            0000019B
SPBRGH                            0000019C
SPBRGH1                           0000019C
SPBRGL                            0000019B
SPEN                              00000007
SPLLEN                            00000007
MPASM 5.77               COLORIZE_ANALOG.ASM   7-21-2018  21:33:50         PAGE 74


SYMBOL TABLE
  LABEL                             VALUE 

SPOL                              00000003
SREN                              00000005
SSEL0                             00000000
SSEL1                             00000001
SSEL2                             00000002
SSEL3                             00000003
SSEL4                             00000004
SSP1ADD                           00000212
SSP1ADD0                          00000000
SSP1ADD1                          00000001
SSP1ADD2                          00000002
SSP1ADD3                          00000003
SSP1ADD4                          00000004
SSP1ADD5                          00000005
SSP1ADD6                          00000006
SSP1ADD7                          00000007
SSP1BUF                           00000211
SSP1BUF0                          00000000
SSP1BUF1                          00000001
SSP1BUF2                          00000002
SSP1BUF3                          00000003
SSP1BUF4                          00000004
SSP1BUF5                          00000005
SSP1BUF6                          00000006
SSP1BUF7                          00000007
SSP1CON                           00000215
SSP1CON1                          00000215
SSP1CON2                          00000216
SSP1CON3                          00000217
SSP1IE                            00000003
SSP1IF                            00000003
SSP1MSK                           00000213
SSP1MSK0                          00000000
SSP1MSK1                          00000001
SSP1MSK2                          00000002
SSP1MSK3                          00000003
SSP1MSK4                          00000004
SSP1MSK5                          00000005
SSP1MSK6                          00000006
SSP1MSK7                          00000007
SSP1STAT                          00000214
SSPADD                            00000212
SSPBUF                            00000211
SSPCLKPPS                         00000E20
SSPCLKPPS0                        00000000
SSPCLKPPS1                        00000001
SSPCLKPPS2                        00000002
SSPCLKPPS3                        00000003
SSPCLKPPS4                        00000004
SSPCON                            00000215
SSPCON1                           00000215
SSPCON2                           00000216
SSPCON3                           00000217
MPASM 5.77               COLORIZE_ANALOG.ASM   7-21-2018  21:33:50         PAGE 75


SYMBOL TABLE
  LABEL                             VALUE 

SSPDATPPS                         00000E21
SSPDATPPS0                        00000000
SSPDATPPS1                        00000001
SSPDATPPS2                        00000002
SSPDATPPS3                        00000003
SSPDATPPS4                        00000004
SSPEN                             00000005
SSPM0                             00000000
SSPM1                             00000001
SSPM2                             00000002
SSPM3                             00000003
SSPMSK                            00000213
SSPOV                             00000006
SSPSSPPS                          00000E22
SSPSSPPS0                         00000000
SSPSSPPS1                         00000001
SSPSSPPS2                         00000002
SSPSSPPS3                         00000003
SSPSSPPS4                         00000004
SSPSTAT                           00000214
STATE                             00000002
STATUS                            00000003
STATUS_SHAD                       00000FE4
STKOVF                            00000007
STKPTR                            00000FED
STKUNF                            00000006
STP                               00000005
STPT0                             00000000
STPT1                             00000001
STPT10                            00000002
STPT11                            00000003
STPT12                            00000004
STPT13                            00000005
STPT14                            00000006
STPT2                             00000002
STPT3                             00000003
STPT4                             00000004
STPT5                             00000005
STPT6                             00000006
STPT7                             00000007
STPT8                             00000000
STPT9                             00000001
STRA                              00000000
STRB                              00000001
STRC                              00000002
STRD                              00000003
SUB16                             
SUBI16                            
SWDTEN                            00000000
SYNC                              00000004
T0CKIPPS                          00000E11
T0CKIPPS0                         00000000
T0CKIPPS1                         00000001
MPASM 5.77               COLORIZE_ANALOG.ASM   7-21-2018  21:33:50         PAGE 76


SYMBOL TABLE
  LABEL                             VALUE 

T0CKIPPS2                         00000002
T0CKIPPS3                         00000003
T0CKIPPS4                         00000004
T0CS                              00000005
T0IE                              00000005
T0IF                              00000002
T0SE                              00000004
T1CKIPPS                          00000E12
T1CKIPPS0                         00000000
T1CKIPPS1                         00000001
T1CKIPPS2                         00000002
T1CKIPPS3                         00000003
T1CKIPPS4                         00000004
T1CKPS0                           00000004
T1CKPS1                           00000005
T1CON                             00000018
T1GCON                            00000019
T1GGO_NOT_DONE                    00000003
T1GPOL                            00000006
T1GPPS                            00000E13
T1GPPS0                           00000000
T1GPPS1                           00000001
T1GPPS2                           00000002
T1GPPS3                           00000003
T1GPPS4                           00000004
T1GSPM                            00000004
T1GSS0                            00000000
T1GSS1                            00000001
T1GTM                             00000005
T1GVAL                            00000002
T2CKPOL                           00000006
T2CKPS0                           00000004
T2CKPS1                           00000005
T2CKPS2                           00000006
T2CKSYNC                          00000005
T2CLKCON                          0000001E
T2CON                             0000001C
T2CS0                             00000000
T2CS1                             00000001
T2CS2                             00000002
T2CS3                             00000003
T2HLT                             0000001D
T2MODE0                           00000000
T2MODE1                           00000001
T2MODE2                           00000002
T2MODE3                           00000003
T2MODE4                           00000004
T2ON                              00000007
T2OUTPS0                          00000000
T2OUTPS1                          00000001
T2OUTPS2                          00000002
T2OUTPS3                          00000003
T2PPS                             00000E18
MPASM 5.77               COLORIZE_ANALOG.ASM   7-21-2018  21:33:50         PAGE 77


SYMBOL TABLE
  LABEL                             VALUE 

T2PPS0                            00000000
T2PPS1                            00000001
T2PPS2                            00000002
T2PPS3                            00000003
T2PPS4                            00000004
T2PR                              0000001B
T2PSYNC                           00000007
T2RSEL0                           00000000
T2RSEL1                           00000001
T2RSEL2                           00000002
T2RSEL3                           00000003
T2RST                             0000001F
T2TMR                             0000001A
T3CKIPPS                          00000E19
T3CKIPPS0                         00000000
T3CKIPPS1                         00000001
T3CKIPPS2                         00000002
T3CKIPPS3                         00000003
T3CKIPPS4                         00000004
T3CKPS0                           00000004
T3CKPS1                           00000005
T3CON                             00000495
T3GCON                            00000496
T3GGO_NOT_DONE                    00000003
T3GPOL                            00000006
T3GPPS                            00000E1A
T3GPPS0                           00000000
T3GPPS1                           00000001
T3GPPS2                           00000002
T3GPPS3                           00000003
T3GPPS4                           00000004
T3GSPM                            00000004
T3GSS0                            00000000
T3GSS1                            00000001
T3GTM                             00000005
T3GVAL                            00000002
T3SYNC                            00000002
T4CKPOL                           00000006
T4CKPS0                           00000004
T4CKPS1                           00000005
T4CKPS2                           00000006
T4CKSYNC                          00000005
T4CLKCON                          00000417
T4CON                             00000415
T4CS0                             00000000
T4CS1                             00000001
T4CS2                             00000002
T4CS3                             00000003
T4HLT                             00000416
T4MODE0                           00000000
T4MODE1                           00000001
T4MODE2                           00000002
T4MODE3                           00000003
MPASM 5.77               COLORIZE_ANALOG.ASM   7-21-2018  21:33:50         PAGE 78


SYMBOL TABLE
  LABEL                             VALUE 

T4MODE4                           00000004
T4ON                              00000007
T4OUTPS0                          00000000
T4OUTPS1                          00000001
T4OUTPS2                          00000002
T4OUTPS3                          00000003
T4PPS                             00000E1B
T4PPS0                            00000000
T4PPS1                            00000001
T4PPS2                            00000002
T4PPS3                            00000003
T4PPS4                            00000004
T4PR                              00000414
T4PSYNC                           00000007
T4RSEL0                           00000000
T4RSEL1                           00000001
T4RSEL2                           00000002
T4RSEL3                           00000003
T4RST                             00000418
T4TMR                             00000413
T5CKIPPS                          00000E1C
T5CKIPPS0                         00000000
T5CKIPPS1                         00000001
T5CKIPPS2                         00000002
T5CKIPPS3                         00000003
T5CKIPPS4                         00000004
T5CKPS0                           00000004
T5CKPS1                           00000005
T5CON                             0000049C
T5GCON                            0000049D
T5GGO_NOT_DONE                    00000003
T5GPOL                            00000006
T5GPPS                            00000E1D
T5GPPS0                           00000000
T5GPPS1                           00000001
T5GPPS2                           00000002
T5GPPS3                           00000003
T5GPPS4                           00000004
T5GSPM                            00000004
T5GSS0                            00000000
T5GSS1                            00000001
T5GTM                             00000005
T5GVAL                            00000002
T5SYNC                            00000002
T6CKPOL                           00000006
T6CKPS0                           00000004
T6CKPS1                           00000005
T6CKPS2                           00000006
T6CKSYNC                          00000005
T6CLKCON                          0000041E
T6CON                             0000041C
T6CS0                             00000000
T6CS1                             00000001
MPASM 5.77               COLORIZE_ANALOG.ASM   7-21-2018  21:33:50         PAGE 79


SYMBOL TABLE
  LABEL                             VALUE 

T6CS2                             00000002
T6CS3                             00000003
T6HLT                             0000041D
T6MODE0                           00000000
T6MODE1                           00000001
T6MODE2                           00000002
T6MODE3                           00000003
T6MODE4                           00000004
T6ON                              00000007
T6OUTPS0                          00000000
T6OUTPS1                          00000001
T6OUTPS2                          00000002
T6OUTPS3                          00000003
T6PPS                             00000E1E
T6PPS0                            00000000
T6PPS1                            00000001
T6PPS2                            00000002
T6PPS3                            00000003
T6PPS4                            00000004
T6PR                              0000041B
T6PSYNC                           00000007
T6RSEL0                           00000000
T6RSEL1                           00000001
T6RSEL2                           00000002
T6RSEL3                           00000003
T6RST                             0000041F
T6TMR                             0000041A
TEMP16                            00000021
TEMP8                             00000020
TGRH                              0000002D
TGRL                              0000002F
TMR0                              00000015
TMR0CS                            00000005
TMR0IE                            00000005
TMR0IF                            00000002
TMR0SE                            00000004
TMR1                              00000016
TMR1CS0                           00000006
TMR1CS1                           00000007
TMR1GE                            00000007
TMR1GIE                           00000007
TMR1GIF                           00000007
TMR1H                             00000017
TMR1IE                            00000000
TMR1IF                            00000000
TMR1L                             00000016
TMR1ON                            00000000
TMR2                              0000001A
TMR2AS                            00000004
TMR2IE                            00000001
TMR2IF                            00000001
TMR2ON                            00000007
TMR3CS0                           00000006
MPASM 5.77               COLORIZE_ANALOG.ASM   7-21-2018  21:33:50         PAGE 80


SYMBOL TABLE
  LABEL                             VALUE 

TMR3CS1                           00000007
TMR3GE                            00000007
TMR3GIE                           00000007
TMR3GIF                           00000007
TMR3H                             00000494
TMR3IE                            00000006
TMR3IF                            00000006
TMR3L                             00000493
TMR3ON                            00000000
TMR4                              00000413
TMR4AS                            00000005
TMR4IE                            00000001
TMR4IF                            00000001
TMR4ON                            00000007
TMR5CS0                           00000006
TMR5CS1                           00000007
TMR5GE                            00000007
TMR5GIE                           00000005
TMR5GIF                           00000005
TMR5H                             0000049B
TMR5IE                            00000004
TMR5IF                            00000004
TMR5L                             0000049A
TMR5ON                            00000000
TMR6                              0000041A
TMR6AS                            00000006
TMR6IE                            00000002
TMR6IF                            00000002
TMR6ON                            00000007
TOSH                              00000FEF
TOSL                              00000FEE
TRIGGER_OFF                       0x3F
TRIGSEL0                          00000004
TRIGSEL1                          00000005
TRIGSEL2                          00000006
TRIGSEL3                          00000007
TRISA                             0000008C
TRISA0                            00000000
TRISA1                            00000001
TRISA2                            00000002
TRISA3                            00000003
TRISA4                            00000004
TRISA5                            00000005
TRISC                             0000008E
TRISC0                            00000000
TRISC1                            00000001
TRISC2                            00000002
TRISC3                            00000003
TRISC4                            00000004
TRISC5                            00000005
TRMT                              00000001
TS                                00000002
TSEL0                             00000000
MPASM 5.77               COLORIZE_ANALOG.ASM   7-21-2018  21:33:50         PAGE 81


SYMBOL TABLE
  LABEL                             VALUE 

TSEL1                             00000001
TSEL2                             00000002
TSEL3                             00000003
TSEN                              00000005
TSRNG                             00000004
TUN0                              00000000
TUN1                              00000001
TUN2                              00000002
TUN3                              00000003
TUN4                              00000004
TUN5                              00000005
TX1REG                            0000019A
TX1STA                            0000019E
TX9                               00000006
TX9D                              00000000
TXEN                              00000005
TXIE                              00000004
TXIF                              00000004
TXREG                             0000019A
TXREG1                            0000019A
TXSTA                             0000019E
TXSTA1                            0000019E
UA                                00000001
VALID                             00000000
VREGCON                           00000197
VREGPM0                           00000000
VREGPM1                           00000001
W                                 00000000
WCOL                              00000007
WDATA                             00000023
WDTCON0                           00000711
WDTCON1                           00000712
WDTCS0                            00000004
WDTCS1                            00000005
WDTCS2                            00000006
WDTPS0                            00000001
WDTPS1                            00000002
WDTPS2                            00000003
WDTPS3                            00000004
WDTPS4                            00000005
WDTPSCNT0                         00000000
WDTPSCNT1                         00000001
WDTPSCNT10                        00000002
WDTPSCNT11                        00000003
WDTPSCNT12                        00000004
WDTPSCNT13                        00000005
WDTPSCNT14                        00000006
WDTPSCNT15                        00000007
WDTPSCNT16                        00000000
WDTPSCNT17                        00000001
WDTPSCNT2                         00000002
WDTPSCNT3                         00000003
WDTPSCNT4                         00000004
MPASM 5.77               COLORIZE_ANALOG.ASM   7-21-2018  21:33:50         PAGE 82


SYMBOL TABLE
  LABEL                             VALUE 

WDTPSCNT5                         00000005
WDTPSCNT6                         00000006
WDTPSCNT7                         00000007
WDTPSCNT8                         00000000
WDTPSCNT9                         00000001
WDTPSH                            00000714
WDTPSL                            00000713
WDTSEN                            00000000
WDTSTATE                          00000002
WDTTMR                            00000715
WDTTMR0                           00000003
WDTTMR1                           00000004
WDTTMR2                           00000005
WDTTMR3                           00000006
WDTTMR4                           00000007
WDTWINDOW0                        00000000
WDTWINDOW1                        00000001
WDTWINDOW2                        00000002
WINDOW0                           00000000
WINDOW1                           00000001
WINDOW2                           00000002
WITHIN_WINDOW                     
WPOL                              00000004
WPUA                              0000020C
WPUA0                             00000000
WPUA1                             00000001
WPUA2                             00000002
WPUA3                             00000003
WPUA4                             00000004
WPUA5                             00000005
WPUC                              0000020E
WPUC0                             00000000
WPUC1                             00000001
WPUC2                             00000002
WPUC3                             00000003
WPUC4                             00000004
WPUC5                             00000005
WR                                00000001
WREG                              00000009
WREG_SHAD                         00000FE5
WREN                              00000002
WRERR                             00000003
WRGB                              00000000
WS                                00000001
WS2813_HIDR                       HIDC4
WS2813_LAT                        LATC4
WS2813_PIN                        RC4
WSEL0                             00000000
WSEL1                             00000001
WSEL2                             00000002
WSEL3                             00000003
WSEL4                             00000004
WUE                               00000001
MPASM 5.77               COLORIZE_ANALOG.ASM   7-21-2018  21:33:50         PAGE 83


SYMBOL TABLE
  LABEL                             VALUE 

XOR1                              00000001
XOR10                             00000002
XOR11                             00000003
XOR12                             00000004
XOR13                             00000005
XOR14                             00000006
XOR15                             00000007
XOR2                              00000002
XOR3                              00000003
XOR4                              00000004
XOR5                              00000005
XOR6                              00000006
XOR7                              00000007
XOR8                              00000000
XOR9                              00000001
Z                                 00000002
Z10                               00000000
Z11                               00000001
Z110                              00000002
Z111                              00000003
Z112                              00000004
Z113                              00000005
Z114                              00000006
Z115                              00000007
Z116                              00000000
Z12                               00000002
Z13                               00000003
Z14                               00000004
Z15                               00000005
Z16                               00000006
Z17                               00000007
Z18                               00000000
Z19                               00000001
Z20                               00000000
Z21                               00000001
Z210                              00000002
Z211                              00000003
Z212                              00000004
Z213                              00000005
Z214                              00000006
Z215                              00000007
Z216                              00000000
Z22                               00000002
Z23                               00000003
Z24                               00000004
Z25                               00000005
Z26                               00000006
Z27                               00000007
Z28                               00000000
Z29                               00000001
ZCD1CON                           0000011C
ZCD1EN                            00000007
ZCD1INTN                          00000000
MPASM 5.77               COLORIZE_ANALOG.ASM   7-21-2018  21:33:50         PAGE 84


SYMBOL TABLE
  LABEL                             VALUE 

ZCD1INTP                          00000001
ZCD1OUT                           00000005
ZCD1POL                           00000004
ZCDIE                             00000004
ZCDIF                             00000004
Z_SHAD                            00000002
_BOREN_NSLEEP                     00003DFF
_BOREN_OFF                        000039FF
_BOREN_ON                         00003FFF
_BOREN_SBODEN                     00003BFF
_BORV_HI                          00003BFF
_BORV_LO                          00003FFF
_CLKOUTEN_OFF                     00003FFF
_CLKOUTEN_ON                      000037FF
_COLORIZOR_00AE                   000000AE
_COLORIZOR_00D8                   000000D8
_CONFIG1                          00008007
_CONFIG2                          00008008
_CONFIG3                          00008009
_CP_OFF                           00003FFF
_CP_ON                            00003F7F
_DEVID1                           00008006
_FCMEN_OFF                        00001FFF
_FCMEN_ON                         00003FFF
_FOSC_ECH                         00003FFF
_FOSC_ECL                         00003FFD
_FOSC_ECM                         00003FFE
_FOSC_HS                          00003FFA
_FOSC_INTOSC                      00003FFC
_IDLOC0                           00008000
_IDLOC1                           00008001
_IDLOC2                           00008002
_IDLOC3                           00008003
_IESO_OFF                         00002FFF
_IESO_ON                          00003FFF
_LPBOR_OFF                        00003FFF
_LPBOR_ON                         000037FF
_LVP_OFF                          00001FFF
_LVP_ON                           00003FFF
_MCLRE_OFF                        00003FBF
_MCLRE_ON                         00003FFF
_PLLEN_OFF                        00003EFF
_PLLEN_ON                         00003FFF
_PPS1WAY_OFF                      00003FFB
_PPS1WAY_ON                       00003FFF
_PWRTE_OFF                        00003FFF
_PWRTE_ON                         00003FDF
_REG_A                            0000007E
_REG_B                            0000007C
_STVREN_OFF                       00003DFF
_STVREN_ON                        00003FFF
_WDTCCS_LFINTOSC                  000007FF
_WDTCCS_MFINTOSC                  00000FFF
MPASM 5.77               COLORIZE_ANALOG.ASM   7-21-2018  21:33:50         PAGE 85


SYMBOL TABLE
  LABEL                             VALUE 

_WDTCCS_SWC                       00003FFF
_WDTCPS_WDTCPS0                   00003FE0
_WDTCPS_WDTCPS1                   00003FE1
_WDTCPS_WDTCPS10                  00003FF0
_WDTCPS_WDTCPS11                  00003FF1
_WDTCPS_WDTCPS12                  00003FF2
_WDTCPS_WDTCPS1F                  00003FFF
_WDTCPS_WDTCPS2                   00003FE2
_WDTCPS_WDTCPS3                   00003FE3
_WDTCPS_WDTCPS4                   00003FE4
_WDTCPS_WDTCPS5                   00003FE5
_WDTCPS_WDTCPS6                   00003FE6
_WDTCPS_WDTCPS7                   00003FE7
_WDTCPS_WDTCPS8                   00003FE8
_WDTCPS_WDTCPS9                   00003FE9
_WDTCPS_WDTCPSA                   00003FEA
_WDTCPS_WDTCPSB                   00003FEB
_WDTCPS_WDTCPSC                   00003FEC
_WDTCPS_WDTCPSD                   00003FED
_WDTCPS_WDTCPSE                   00003FEE
_WDTCPS_WDTCPSF                   00003FEF
_WDTCWS_WDTCWS100                 00003EFF
_WDTCWS_WDTCWS125                 000038FF
_WDTCWS_WDTCWS25                  000039FF
_WDTCWS_WDTCWS375                 00003AFF
_WDTCWS_WDTCWS50                  00003BFF
_WDTCWS_WDTCWS625                 00003CFF
_WDTCWS_WDTCWS75                  00003DFF
_WDTCWS_WDTCWSSW                  00003FFF
_WDTE_NSLEEP                      00003FDF
_WDTE_OFF                         00003F9F
_WDTE_ON                          00003FFF
_WDTE_SWDTEN                      00003FBF
_WRT_ALL                          00003FFC
_WRT_BOOT                         00003FFE
_WRT_HALF                         00003FFD
_WRT_OFF                          00003FFF
_ZCD_OFF                          00003FFF
_ZCD_ON                           00003F7F
__16F1615                         00000001

Errors   :     0
Warnings :     0 reported,     0 suppressed
Messages :    15 reported,     0 suppressed

