MPLINK 5.08, LINKER
Linker Map File - Created Mon Aug 13 12:11:21 2018

                                 Section Info
                  Section       Type    Address   Location Size(Bytes)
                ---------  ---------  ---------  ---------  ---------
                 RES_VECT       code   0x000000    program   0x000004
                   .cinit    romdata   0x000002    program   0x000004
                MAIN_PROG       code   0x000004    program   0x0006f0
                UTIL_PRGM       code   0x00037c    program   0x000040
.config_8007_BUILD/DEFAULT/DEBUG/_EXT/7394326       code   0x008007    program   0x000002
.config_8008_BUILD/DEFAULT/DEBUG/_EXT/7394326       code   0x008008    program   0x000002
.config_8009_BUILD/DEFAULT/DEBUG/_EXT/7394326       code   0x008009    program   0x000002
                     VARS      udata   0x000120       data   0x00000e
                UTIL_VARS      udata   0x0005a0       data   0x000002



                              Program Memory Usage 
                               Start         End      
                           ---------   ---------      
                            0x000000    0x00039b      
                            0x008007    0x008009      
            927 out of 8200 program addresses used, program memory utilization is 11%



                              Symbols - Sorted by Name
                     Name    Address   Location    Storage File                     
                ---------  ---------  ---------  --------- ---------                
                    DELAY   0x00016a    program     static ..\ws2813-firmware\WS2813.asm
                     DONE   0x000175    program     static ..\ws2813-firmware\WS2813.asm
                       IL   0x000172    program     static ..\ws2813-firmware\WS2813.asm
                  INITIAL   0x000004    program     static ..\ws2813-firmware\WS2813.asm
                 LSHIFT16   0x00038c    program     extern C:\Users\Paul Wood\Documents\Git\space-fuzz-pedal\UtilRoutines.asm
                   LSLOOP   0x000391    program     static C:\Users\Paul Wood\Documents\Git\space-fuzz-pedal\UtilRoutines.asm
                       OL   0x00016d    program     static ..\ws2813-firmware\WS2813.asm
              RENDER_LOOP   0x00003c    program     static ..\ws2813-firmware\WS2813.asm
                 RSHIFT16   0x00037c    program     extern C:\Users\Paul Wood\Documents\Git\space-fuzz-pedal\UtilRoutines.asm
                 RSHIFT16   0x00036c    program     static ..\ws2813-firmware\WS2813.asm
                    START   0x00003b    program     static ..\ws2813-firmware\WS2813.asm
              WRITE_FRAME   0x00015e    program     static ..\ws2813-firmware\WS2813.asm
                WRITE_LED   0x000166    program     static ..\ws2813-firmware\WS2813.asm
             WS2813_WRITE   0x000176    program     static ..\ws2813-firmware\WS2813.asm
                 _0RSLOOP   0x000381    program     static C:\Users\Paul Wood\Documents\Git\space-fuzz-pedal\UtilRoutines.asm
                 _0RSLOOP   0x000371    program     static ..\ws2813-firmware\WS2813.asm
          _MAIN_PROG_0048   0x00004c    program     static ..\ws2813-firmware\WS2813.asm
          _MAIN_PROG_005B   0x00005f    program     static ..\ws2813-firmware\WS2813.asm
          _MAIN_PROG_006B   0x00006f    program     static ..\ws2813-firmware\WS2813.asm
          _MAIN_PROG_0073   0x000077    program     static ..\ws2813-firmware\WS2813.asm
          _MAIN_PROG_008B   0x00008f    program     static ..\ws2813-firmware\WS2813.asm
          _MAIN_PROG_009D   0x0000a1    program     static ..\ws2813-firmware\WS2813.asm
          _MAIN_PROG_00B0   0x0000b4    program     static ..\ws2813-firmware\WS2813.asm
          _MAIN_PROG_00C2   0x0000c6    program     static ..\ws2813-firmware\WS2813.asm
          _MAIN_PROG_00D5   0x0000d9    program     static ..\ws2813-firmware\WS2813.asm
          _MAIN_PROG_00DD   0x0000e1    program     static ..\ws2813-firmware\WS2813.asm
          _MAIN_PROG_00FA   0x0000fe    program     static ..\ws2813-firmware\WS2813.asm
          _MAIN_PROG_010D   0x000111    program     static ..\ws2813-firmware\WS2813.asm
          _MAIN_PROG_011F   0x000123    program     static ..\ws2813-firmware\WS2813.asm
          _MAIN_PROG_0132   0x000136    program     static ..\ws2813-firmware\WS2813.asm
          _MAIN_PROG_0142   0x000146    program     static ..\ws2813-firmware\WS2813.asm
          _MAIN_PROG_014A   0x00014e    program     static ..\ws2813-firmware\WS2813.asm
          _MAIN_PROG_016F   0x000173    program     static ..\ws2813-firmware\WS2813.asm
          _MAIN_PROG_0173   0x000177    program     static ..\ws2813-firmware\WS2813.asm
          _MAIN_PROG_017D   0x000181    program     static ..\ws2813-firmware\WS2813.asm
          _MAIN_PROG_0188   0x00018c    program     static ..\ws2813-firmware\WS2813.asm
          _MAIN_PROG_0192   0x000196    program     static ..\ws2813-firmware\WS2813.asm
          _MAIN_PROG_019D   0x0001a1    program     static ..\ws2813-firmware\WS2813.asm
          _MAIN_PROG_01A7   0x0001ab    program     static ..\ws2813-firmware\WS2813.asm
          _MAIN_PROG_01B2   0x0001b6    program     static ..\ws2813-firmware\WS2813.asm
          _MAIN_PROG_01BC   0x0001c0    program     static ..\ws2813-firmware\WS2813.asm
          _MAIN_PROG_01C7   0x0001cb    program     static ..\ws2813-firmware\WS2813.asm
          _MAIN_PROG_01D1   0x0001d5    program     static ..\ws2813-firmware\WS2813.asm
          _MAIN_PROG_01DC   0x0001e0    program     static ..\ws2813-firmware\WS2813.asm
          _MAIN_PROG_01E6   0x0001ea    program     static ..\ws2813-firmware\WS2813.asm
          _MAIN_PROG_01F1   0x0001f5    program     static ..\ws2813-firmware\WS2813.asm
          _MAIN_PROG_01FB   0x0001ff    program     static ..\ws2813-firmware\WS2813.asm
          _MAIN_PROG_0206   0x00020a    program     static ..\ws2813-firmware\WS2813.asm
          _MAIN_PROG_0210   0x000214    program     static ..\ws2813-firmware\WS2813.asm
          _MAIN_PROG_021B   0x00021f    program     static ..\ws2813-firmware\WS2813.asm
          _MAIN_PROG_0225   0x000229    program     static ..\ws2813-firmware\WS2813.asm
          _MAIN_PROG_0230   0x000234    program     static ..\ws2813-firmware\WS2813.asm
          _MAIN_PROG_023A   0x00023e    program     static ..\ws2813-firmware\WS2813.asm
          _MAIN_PROG_0245   0x000249    program     static ..\ws2813-firmware\WS2813.asm
          _MAIN_PROG_024F   0x000253    program     static ..\ws2813-firmware\WS2813.asm
          _MAIN_PROG_025A   0x00025e    program     static ..\ws2813-firmware\WS2813.asm
          _MAIN_PROG_0264   0x000268    program     static ..\ws2813-firmware\WS2813.asm
          _MAIN_PROG_026F   0x000273    program     static ..\ws2813-firmware\WS2813.asm
          _MAIN_PROG_0279   0x00027d    program     static ..\ws2813-firmware\WS2813.asm
          _MAIN_PROG_0284   0x000288    program     static ..\ws2813-firmware\WS2813.asm
          _MAIN_PROG_028E   0x000292    program     static ..\ws2813-firmware\WS2813.asm
          _MAIN_PROG_0299   0x00029d    program     static ..\ws2813-firmware\WS2813.asm
          _MAIN_PROG_02A3   0x0002a7    program     static ..\ws2813-firmware\WS2813.asm
          _MAIN_PROG_02AE   0x0002b2    program     static ..\ws2813-firmware\WS2813.asm
          _MAIN_PROG_02B8   0x0002bc    program     static ..\ws2813-firmware\WS2813.asm
          _MAIN_PROG_02C3   0x0002c7    program     static ..\ws2813-firmware\WS2813.asm
          _MAIN_PROG_02CD   0x0002d1    program     static ..\ws2813-firmware\WS2813.asm
          _MAIN_PROG_02D8   0x0002dc    program     static ..\ws2813-firmware\WS2813.asm
          _MAIN_PROG_02E2   0x0002e6    program     static ..\ws2813-firmware\WS2813.asm
          _MAIN_PROG_02ED   0x0002f1    program     static ..\ws2813-firmware\WS2813.asm
          _MAIN_PROG_02F7   0x0002fb    program     static ..\ws2813-firmware\WS2813.asm
          _MAIN_PROG_0302   0x000306    program     static ..\ws2813-firmware\WS2813.asm
          _MAIN_PROG_030C   0x000310    program     static ..\ws2813-firmware\WS2813.asm
          _MAIN_PROG_0317   0x00031b    program     static ..\ws2813-firmware\WS2813.asm
          _MAIN_PROG_0321   0x000325    program     static ..\ws2813-firmware\WS2813.asm
          _MAIN_PROG_032C   0x000330    program     static ..\ws2813-firmware\WS2813.asm
          _MAIN_PROG_0336   0x00033a    program     static ..\ws2813-firmware\WS2813.asm
          _MAIN_PROG_0341   0x000345    program     static ..\ws2813-firmware\WS2813.asm
          _MAIN_PROG_034B   0x00034f    program     static ..\ws2813-firmware\WS2813.asm
          _MAIN_PROG_0356   0x00035a    program     static ..\ws2813-firmware\WS2813.asm
          _MAIN_PROG_0360   0x000364    program     static ..\ws2813-firmware\WS2813.asm
                   BCOUNT   0x000120       data     static ..\ws2813-firmware\WS2813.asm
               FRAMECOUNT   0x000123       data     static ..\ws2813-firmware\WS2813.asm
                 SHIFTNUM   0x000121       data     static ..\ws2813-firmware\WS2813.asm
                 SHIFTNUM   0x0005a0       data     extern C:\Users\Paul Wood\Documents\Git\space-fuzz-pedal\UtilRoutines.asm
                   WCOLOR   0x000129       data     static ..\ws2813-firmware\WS2813.asm
                    WDATA   0x00012c       data     static ..\ws2813-firmware\WS2813.asm
              WRITE_COUNT   0x000124       data     static ..\ws2813-firmware\WS2813.asm
             WS2813_RESET   0x000125       data     static ..\ws2813-firmware\WS2813.asm
        WS2813_RESET_COPY   0x000127       data     static ..\ws2813-firmware\WS2813.asm



                              Symbols - Sorted by Address
                     Name    Address   Location    Storage File                     
                ---------  ---------  ---------  --------- ---------                
                  INITIAL   0x000004    program     static ..\ws2813-firmware\WS2813.asm
                    START   0x00003b    program     static ..\ws2813-firmware\WS2813.asm
              RENDER_LOOP   0x00003c    program     static ..\ws2813-firmware\WS2813.asm
          _MAIN_PROG_0048   0x00004c    program     static ..\ws2813-firmware\WS2813.asm
          _MAIN_PROG_005B   0x00005f    program     static ..\ws2813-firmware\WS2813.asm
          _MAIN_PROG_006B   0x00006f    program     static ..\ws2813-firmware\WS2813.asm
          _MAIN_PROG_0073   0x000077    program     static ..\ws2813-firmware\WS2813.asm
          _MAIN_PROG_008B   0x00008f    program     static ..\ws2813-firmware\WS2813.asm
          _MAIN_PROG_009D   0x0000a1    program     static ..\ws2813-firmware\WS2813.asm
          _MAIN_PROG_00B0   0x0000b4    program     static ..\ws2813-firmware\WS2813.asm
          _MAIN_PROG_00C2   0x0000c6    program     static ..\ws2813-firmware\WS2813.asm
          _MAIN_PROG_00D5   0x0000d9    program     static ..\ws2813-firmware\WS2813.asm
          _MAIN_PROG_00DD   0x0000e1    program     static ..\ws2813-firmware\WS2813.asm
          _MAIN_PROG_00FA   0x0000fe    program     static ..\ws2813-firmware\WS2813.asm
          _MAIN_PROG_010D   0x000111    program     static ..\ws2813-firmware\WS2813.asm
          _MAIN_PROG_011F   0x000123    program     static ..\ws2813-firmware\WS2813.asm
          _MAIN_PROG_0132   0x000136    program     static ..\ws2813-firmware\WS2813.asm
          _MAIN_PROG_0142   0x000146    program     static ..\ws2813-firmware\WS2813.asm
          _MAIN_PROG_014A   0x00014e    program     static ..\ws2813-firmware\WS2813.asm
              WRITE_FRAME   0x00015e    program     static ..\ws2813-firmware\WS2813.asm
                WRITE_LED   0x000166    program     static ..\ws2813-firmware\WS2813.asm
                    DELAY   0x00016a    program     static ..\ws2813-firmware\WS2813.asm
                       OL   0x00016d    program     static ..\ws2813-firmware\WS2813.asm
                       IL   0x000172    program     static ..\ws2813-firmware\WS2813.asm
          _MAIN_PROG_016F   0x000173    program     static ..\ws2813-firmware\WS2813.asm
                     DONE   0x000175    program     static ..\ws2813-firmware\WS2813.asm
             WS2813_WRITE   0x000176    program     static ..\ws2813-firmware\WS2813.asm
          _MAIN_PROG_0173   0x000177    program     static ..\ws2813-firmware\WS2813.asm
          _MAIN_PROG_017D   0x000181    program     static ..\ws2813-firmware\WS2813.asm
          _MAIN_PROG_0188   0x00018c    program     static ..\ws2813-firmware\WS2813.asm
          _MAIN_PROG_0192   0x000196    program     static ..\ws2813-firmware\WS2813.asm
          _MAIN_PROG_019D   0x0001a1    program     static ..\ws2813-firmware\WS2813.asm
          _MAIN_PROG_01A7   0x0001ab    program     static ..\ws2813-firmware\WS2813.asm
          _MAIN_PROG_01B2   0x0001b6    program     static ..\ws2813-firmware\WS2813.asm
          _MAIN_PROG_01BC   0x0001c0    program     static ..\ws2813-firmware\WS2813.asm
          _MAIN_PROG_01C7   0x0001cb    program     static ..\ws2813-firmware\WS2813.asm
          _MAIN_PROG_01D1   0x0001d5    program     static ..\ws2813-firmware\WS2813.asm
          _MAIN_PROG_01DC   0x0001e0    program     static ..\ws2813-firmware\WS2813.asm
          _MAIN_PROG_01E6   0x0001ea    program     static ..\ws2813-firmware\WS2813.asm
          _MAIN_PROG_01F1   0x0001f5    program     static ..\ws2813-firmware\WS2813.asm
          _MAIN_PROG_01FB   0x0001ff    program     static ..\ws2813-firmware\WS2813.asm
          _MAIN_PROG_0206   0x00020a    program     static ..\ws2813-firmware\WS2813.asm
          _MAIN_PROG_0210   0x000214    program     static ..\ws2813-firmware\WS2813.asm
          _MAIN_PROG_021B   0x00021f    program     static ..\ws2813-firmware\WS2813.asm
          _MAIN_PROG_0225   0x000229    program     static ..\ws2813-firmware\WS2813.asm
          _MAIN_PROG_0230   0x000234    program     static ..\ws2813-firmware\WS2813.asm
          _MAIN_PROG_023A   0x00023e    program     static ..\ws2813-firmware\WS2813.asm
          _MAIN_PROG_0245   0x000249    program     static ..\ws2813-firmware\WS2813.asm
          _MAIN_PROG_024F   0x000253    program     static ..\ws2813-firmware\WS2813.asm
          _MAIN_PROG_025A   0x00025e    program     static ..\ws2813-firmware\WS2813.asm
          _MAIN_PROG_0264   0x000268    program     static ..\ws2813-firmware\WS2813.asm
          _MAIN_PROG_026F   0x000273    program     static ..\ws2813-firmware\WS2813.asm
          _MAIN_PROG_0279   0x00027d    program     static ..\ws2813-firmware\WS2813.asm
          _MAIN_PROG_0284   0x000288    program     static ..\ws2813-firmware\WS2813.asm
          _MAIN_PROG_028E   0x000292    program     static ..\ws2813-firmware\WS2813.asm
          _MAIN_PROG_0299   0x00029d    program     static ..\ws2813-firmware\WS2813.asm
          _MAIN_PROG_02A3   0x0002a7    program     static ..\ws2813-firmware\WS2813.asm
          _MAIN_PROG_02AE   0x0002b2    program     static ..\ws2813-firmware\WS2813.asm
          _MAIN_PROG_02B8   0x0002bc    program     static ..\ws2813-firmware\WS2813.asm
          _MAIN_PROG_02C3   0x0002c7    program     static ..\ws2813-firmware\WS2813.asm
          _MAIN_PROG_02CD   0x0002d1    program     static ..\ws2813-firmware\WS2813.asm
          _MAIN_PROG_02D8   0x0002dc    program     static ..\ws2813-firmware\WS2813.asm
          _MAIN_PROG_02E2   0x0002e6    program     static ..\ws2813-firmware\WS2813.asm
          _MAIN_PROG_02ED   0x0002f1    program     static ..\ws2813-firmware\WS2813.asm
          _MAIN_PROG_02F7   0x0002fb    program     static ..\ws2813-firmware\WS2813.asm
          _MAIN_PROG_0302   0x000306    program     static ..\ws2813-firmware\WS2813.asm
          _MAIN_PROG_030C   0x000310    program     static ..\ws2813-firmware\WS2813.asm
          _MAIN_PROG_0317   0x00031b    program     static ..\ws2813-firmware\WS2813.asm
          _MAIN_PROG_0321   0x000325    program     static ..\ws2813-firmware\WS2813.asm
          _MAIN_PROG_032C   0x000330    program     static ..\ws2813-firmware\WS2813.asm
          _MAIN_PROG_0336   0x00033a    program     static ..\ws2813-firmware\WS2813.asm
          _MAIN_PROG_0341   0x000345    program     static ..\ws2813-firmware\WS2813.asm
          _MAIN_PROG_034B   0x00034f    program     static ..\ws2813-firmware\WS2813.asm
          _MAIN_PROG_0356   0x00035a    program     static ..\ws2813-firmware\WS2813.asm
          _MAIN_PROG_0360   0x000364    program     static ..\ws2813-firmware\WS2813.asm
                 RSHIFT16   0x00036c    program     static ..\ws2813-firmware\WS2813.asm
                 _0RSLOOP   0x000371    program     static ..\ws2813-firmware\WS2813.asm
                 RSHIFT16   0x00037c    program     extern C:\Users\Paul Wood\Documents\Git\space-fuzz-pedal\UtilRoutines.asm
                 _0RSLOOP   0x000381    program     static C:\Users\Paul Wood\Documents\Git\space-fuzz-pedal\UtilRoutines.asm
                 LSHIFT16   0x00038c    program     extern C:\Users\Paul Wood\Documents\Git\space-fuzz-pedal\UtilRoutines.asm
                   LSLOOP   0x000391    program     static C:\Users\Paul Wood\Documents\Git\space-fuzz-pedal\UtilRoutines.asm
                   BCOUNT   0x000120       data     static ..\ws2813-firmware\WS2813.asm
                 SHIFTNUM   0x000121       data     static ..\ws2813-firmware\WS2813.asm
               FRAMECOUNT   0x000123       data     static ..\ws2813-firmware\WS2813.asm
              WRITE_COUNT   0x000124       data     static ..\ws2813-firmware\WS2813.asm
             WS2813_RESET   0x000125       data     static ..\ws2813-firmware\WS2813.asm
        WS2813_RESET_COPY   0x000127       data     static ..\ws2813-firmware\WS2813.asm
                   WCOLOR   0x000129       data     static ..\ws2813-firmware\WS2813.asm
                    WDATA   0x00012c       data     static ..\ws2813-firmware\WS2813.asm
                 SHIFTNUM   0x0005a0       data     extern C:\Users\Paul Wood\Documents\Git\space-fuzz-pedal\UtilRoutines.asm


